Archive member included to satisfy reference by file (symbol)

/home/brusli/.mcuxpressotools/arm-gnu-toolchain-14.2.rel1-x86_64-arm-none-eabi/bin/../lib/gcc/arm-none-eabi/14.2.1/thumb/v8-m.main+fp/hard/libgcc.a(_arm_addsubdf3.o)
                              CMakeFiles/led_blinky_peripheral_cm33_core0.elf.dir/home/brusli/Documents/Projects/NXP/main/sdks/main_testing_sdk/devices/MCXN947/drivers/fsl_lpadc.c.obj (__aeabi_dsub)
/home/brusli/.mcuxpressotools/arm-gnu-toolchain-14.2.rel1-x86_64-arm-none-eabi/bin/../lib/gcc/arm-none-eabi/14.2.1/thumb/v8-m.main+fp/hard/libgcc.a(_arm_muldivdf3.o)
                              CMakeFiles/led_blinky_peripheral_cm33_core0.elf.dir/home/brusli/Documents/Projects/NXP/main/sdks/main_testing_sdk/devices/MCXN947/drivers/fsl_lpadc.c.obj (__aeabi_ddiv)
/home/brusli/.mcuxpressotools/arm-gnu-toolchain-14.2.rel1-x86_64-arm-none-eabi/bin/../lib/gcc/arm-none-eabi/14.2.1/thumb/v8-m.main+fp/hard/libgcc.a(_arm_truncdfsf2.o)
                              CMakeFiles/led_blinky_peripheral_cm33_core0.elf.dir/home/brusli/Documents/Projects/NXP/main/sdks/main_testing_sdk/devices/MCXN947/drivers/fsl_lpadc.c.obj (__aeabi_d2f)
/home/brusli/.mcuxpressotools/arm-gnu-toolchain-14.2.rel1-x86_64-arm-none-eabi/bin/../lib/gcc/arm-none-eabi/14.2.1/thumb/v8-m.main+fp/hard/libgcc.a(_aeabi_uldivmod.o)
                              CMakeFiles/led_blinky_peripheral_cm33_core0.elf.dir/home/brusli/Documents/Projects/NXP/main/sdks/main_testing_sdk/devices/MCXN947/drivers/fsl_clock.c.obj (__aeabi_uldivmod)
/home/brusli/.mcuxpressotools/arm-gnu-toolchain-14.2.rel1-x86_64-arm-none-eabi/bin/../lib/gcc/arm-none-eabi/14.2.1/thumb/v8-m.main+fp/hard/libgcc.a(_fixunssfdi.o)
                              CMakeFiles/led_blinky_peripheral_cm33_core0.elf.dir/home/brusli/Documents/Projects/NXP/main/sdks/main_testing_sdk/devices/MCXN947/drivers/fsl_clock.c.obj (__aeabi_f2ulz)
/home/brusli/.mcuxpressotools/arm-gnu-toolchain-14.2.rel1-x86_64-arm-none-eabi/bin/../lib/gcc/arm-none-eabi/14.2.1/thumb/v8-m.main+fp/hard/libgcc.a(_udivmoddi4.o)
                              /home/brusli/.mcuxpressotools/arm-gnu-toolchain-14.2.rel1-x86_64-arm-none-eabi/bin/../lib/gcc/arm-none-eabi/14.2.1/thumb/v8-m.main+fp/hard/libgcc.a(_aeabi_uldivmod.o) (__udivmoddi4)
/home/brusli/.mcuxpressotools/arm-gnu-toolchain-14.2.rel1-x86_64-arm-none-eabi/bin/../lib/gcc/arm-none-eabi/14.2.1/thumb/v8-m.main+fp/hard/libgcc.a(_dvmd_tls.o)
                              /home/brusli/.mcuxpressotools/arm-gnu-toolchain-14.2.rel1-x86_64-arm-none-eabi/bin/../lib/gcc/arm-none-eabi/14.2.1/thumb/v8-m.main+fp/hard/libgcc.a(_aeabi_uldivmod.o) (__aeabi_ldiv0)
/home/brusli/.mcuxpressotools/arm-gnu-toolchain-14.2.rel1-x86_64-arm-none-eabi/bin/../lib/gcc/arm-none-eabi/14.2.1/thumb/v8-m.main+fp/hard/libgcc.a(_arm_fixunsdfsi.o)
                              /home/brusli/.mcuxpressotools/arm-gnu-toolchain-14.2.rel1-x86_64-arm-none-eabi/bin/../lib/gcc/arm-none-eabi/14.2.1/thumb/v8-m.main+fp/hard/libgcc.a(_fixunssfdi.o) (__aeabi_d2uiz)
/home/brusli/.mcuxpressotools/arm-gnu-toolchain-14.2.rel1-x86_64-arm-none-eabi/bin/../lib/gcc/arm-none-eabi/14.2.1/../../../../arm-none-eabi/lib/thumb/v8-m.main+fp/hard/libc_nano.a(libc_a-exit.o)
                              /home/brusli/.mcuxpressotools/arm-gnu-toolchain-14.2.rel1-x86_64-arm-none-eabi/bin/../lib/gcc/arm-none-eabi/14.2.1/../../../../arm-none-eabi/lib/thumb/v8-m.main+fp/hard/crt0.o (exit)
/home/brusli/.mcuxpressotools/arm-gnu-toolchain-14.2.rel1-x86_64-arm-none-eabi/bin/../lib/gcc/arm-none-eabi/14.2.1/../../../../arm-none-eabi/lib/thumb/v8-m.main+fp/hard/libc_nano.a(libc_a-malloc.o)
                              CMakeFiles/led_blinky_peripheral_cm33_core0.elf.dir/home/brusli/Documents/Projects/NXP/main/sdks/main_testing_sdk/devices/MCXN947/drivers/fsl_common.c.obj (malloc)
/home/brusli/.mcuxpressotools/arm-gnu-toolchain-14.2.rel1-x86_64-arm-none-eabi/bin/../lib/gcc/arm-none-eabi/14.2.1/../../../../arm-none-eabi/lib/thumb/v8-m.main+fp/hard/libc_nano.a(libc_a-mallocr.o)
                              /home/brusli/.mcuxpressotools/arm-gnu-toolchain-14.2.rel1-x86_64-arm-none-eabi/bin/../lib/gcc/arm-none-eabi/14.2.1/../../../../arm-none-eabi/lib/thumb/v8-m.main+fp/hard/libc_nano.a(libc_a-malloc.o) (_malloc_r)
/home/brusli/.mcuxpressotools/arm-gnu-toolchain-14.2.rel1-x86_64-arm-none-eabi/bin/../lib/gcc/arm-none-eabi/14.2.1/../../../../arm-none-eabi/lib/thumb/v8-m.main+fp/hard/libc_nano.a(libc_a-mlock.o)
                              /home/brusli/.mcuxpressotools/arm-gnu-toolchain-14.2.rel1-x86_64-arm-none-eabi/bin/../lib/gcc/arm-none-eabi/14.2.1/../../../../arm-none-eabi/lib/thumb/v8-m.main+fp/hard/libc_nano.a(libc_a-mallocr.o) (__malloc_lock)
/home/brusli/.mcuxpressotools/arm-gnu-toolchain-14.2.rel1-x86_64-arm-none-eabi/bin/../lib/gcc/arm-none-eabi/14.2.1/../../../../arm-none-eabi/lib/thumb/v8-m.main+fp/hard/libc_nano.a(libc_a-strtoul.o)
                              CMakeFiles/led_blinky_peripheral_cm33_core0.elf.dir/home/brusli/Documents/Projects/NXP/main/sdks/main_testing_sdk/devices/MCXN947/utilities/str/fsl_str.c.obj (strtoul)
/home/brusli/.mcuxpressotools/arm-gnu-toolchain-14.2.rel1-x86_64-arm-none-eabi/bin/../lib/gcc/arm-none-eabi/14.2.1/../../../../arm-none-eabi/lib/thumb/v8-m.main+fp/hard/libc_nano.a(libc_a-ctype_.o)
                              /home/brusli/.mcuxpressotools/arm-gnu-toolchain-14.2.rel1-x86_64-arm-none-eabi/bin/../lib/gcc/arm-none-eabi/14.2.1/../../../../arm-none-eabi/lib/thumb/v8-m.main+fp/hard/libc_nano.a(libc_a-strtoul.o) (_ctype_)
/home/brusli/.mcuxpressotools/arm-gnu-toolchain-14.2.rel1-x86_64-arm-none-eabi/bin/../lib/gcc/arm-none-eabi/14.2.1/../../../../arm-none-eabi/lib/thumb/v8-m.main+fp/hard/libc_nano.a(libc_a-findfp.o)
                              /home/brusli/.mcuxpressotools/arm-gnu-toolchain-14.2.rel1-x86_64-arm-none-eabi/bin/../lib/gcc/arm-none-eabi/14.2.1/../../../../arm-none-eabi/lib/thumb/v8-m.main+fp/hard/libc_nano.a(libc_a-exit.o) (__stdio_exit_handler)
/home/brusli/.mcuxpressotools/arm-gnu-toolchain-14.2.rel1-x86_64-arm-none-eabi/bin/../lib/gcc/arm-none-eabi/14.2.1/../../../../arm-none-eabi/lib/thumb/v8-m.main+fp/hard/libc_nano.a(libc_a-fwalk.o)
                              /home/brusli/.mcuxpressotools/arm-gnu-toolchain-14.2.rel1-x86_64-arm-none-eabi/bin/../lib/gcc/arm-none-eabi/14.2.1/../../../../arm-none-eabi/lib/thumb/v8-m.main+fp/hard/libc_nano.a(libc_a-findfp.o) (_fwalk_sglue)
/home/brusli/.mcuxpressotools/arm-gnu-toolchain-14.2.rel1-x86_64-arm-none-eabi/bin/../lib/gcc/arm-none-eabi/14.2.1/../../../../arm-none-eabi/lib/thumb/v8-m.main+fp/hard/libc_nano.a(libc_a-sprintf.o)
                              CMakeFiles/led_blinky_peripheral_cm33_core0.elf.dir/home/brusli/Documents/Projects/NXP/main/MCX_LAB_6_OLED/MCX_LAB_6_OLED/oled.c.obj (sprintf)
/home/brusli/.mcuxpressotools/arm-gnu-toolchain-14.2.rel1-x86_64-arm-none-eabi/bin/../lib/gcc/arm-none-eabi/14.2.1/../../../../arm-none-eabi/lib/thumb/v8-m.main+fp/hard/libc_nano.a(libc_a-stdio.o)
                              /home/brusli/.mcuxpressotools/arm-gnu-toolchain-14.2.rel1-x86_64-arm-none-eabi/bin/../lib/gcc/arm-none-eabi/14.2.1/../../../../arm-none-eabi/lib/thumb/v8-m.main+fp/hard/libc_nano.a(libc_a-findfp.o) (__sread)
/home/brusli/.mcuxpressotools/arm-gnu-toolchain-14.2.rel1-x86_64-arm-none-eabi/bin/../lib/gcc/arm-none-eabi/14.2.1/../../../../arm-none-eabi/lib/thumb/v8-m.main+fp/hard/libc_nano.a(libc_a-vsnprintf.o)
                              CMakeFiles/led_blinky_peripheral_cm33_core0.elf.dir/home/brusli/Documents/Projects/NXP/main/MCX_LAB_6_OLED/MCX_LAB_6_OLED/oled.c.obj (vsnprintf)
/home/brusli/.mcuxpressotools/arm-gnu-toolchain-14.2.rel1-x86_64-arm-none-eabi/bin/../lib/gcc/arm-none-eabi/14.2.1/../../../../arm-none-eabi/lib/thumb/v8-m.main+fp/hard/libc_nano.a(libc_a-vsprintf.o)
                              CMakeFiles/led_blinky_peripheral_cm33_core0.elf.dir/home/brusli/Documents/Projects/NXP/main/MCX_LAB_6_OLED/MCX_LAB_6_OLED/oled.c.obj (vsprintf)
/home/brusli/.mcuxpressotools/arm-gnu-toolchain-14.2.rel1-x86_64-arm-none-eabi/bin/../lib/gcc/arm-none-eabi/14.2.1/../../../../arm-none-eabi/lib/thumb/v8-m.main+fp/hard/libc_nano.a(libc_a-memset.o)
                              /home/brusli/.mcuxpressotools/arm-gnu-toolchain-14.2.rel1-x86_64-arm-none-eabi/bin/../lib/gcc/arm-none-eabi/14.2.1/../../../../arm-none-eabi/lib/thumb/v8-m.main+fp/hard/crt0.o (memset)
/home/brusli/.mcuxpressotools/arm-gnu-toolchain-14.2.rel1-x86_64-arm-none-eabi/bin/../lib/gcc/arm-none-eabi/14.2.1/../../../../arm-none-eabi/lib/thumb/v8-m.main+fp/hard/libc_nano.a(libc_a-closer.o)
                              /home/brusli/.mcuxpressotools/arm-gnu-toolchain-14.2.rel1-x86_64-arm-none-eabi/bin/../lib/gcc/arm-none-eabi/14.2.1/../../../../arm-none-eabi/lib/thumb/v8-m.main+fp/hard/libc_nano.a(libc_a-stdio.o) (_close_r)
/home/brusli/.mcuxpressotools/arm-gnu-toolchain-14.2.rel1-x86_64-arm-none-eabi/bin/../lib/gcc/arm-none-eabi/14.2.1/../../../../arm-none-eabi/lib/thumb/v8-m.main+fp/hard/libc_nano.a(libc_a-reent.o)
                              /home/brusli/.mcuxpressotools/arm-gnu-toolchain-14.2.rel1-x86_64-arm-none-eabi/bin/../lib/gcc/arm-none-eabi/14.2.1/../../../../arm-none-eabi/lib/thumb/v8-m.main+fp/hard/libc_nano.a(libc_a-closer.o) (errno)
/home/brusli/.mcuxpressotools/arm-gnu-toolchain-14.2.rel1-x86_64-arm-none-eabi/bin/../lib/gcc/arm-none-eabi/14.2.1/../../../../arm-none-eabi/lib/thumb/v8-m.main+fp/hard/libc_nano.a(libc_a-impure.o)
                              /home/brusli/.mcuxpressotools/arm-gnu-toolchain-14.2.rel1-x86_64-arm-none-eabi/bin/../lib/gcc/arm-none-eabi/14.2.1/../../../../arm-none-eabi/lib/thumb/v8-m.main+fp/hard/libc_nano.a(libc_a-malloc.o) (_impure_ptr)
/home/brusli/.mcuxpressotools/arm-gnu-toolchain-14.2.rel1-x86_64-arm-none-eabi/bin/../lib/gcc/arm-none-eabi/14.2.1/../../../../arm-none-eabi/lib/thumb/v8-m.main+fp/hard/libc_nano.a(libc_a-lseekr.o)
                              /home/brusli/.mcuxpressotools/arm-gnu-toolchain-14.2.rel1-x86_64-arm-none-eabi/bin/../lib/gcc/arm-none-eabi/14.2.1/../../../../arm-none-eabi/lib/thumb/v8-m.main+fp/hard/libc_nano.a(libc_a-stdio.o) (_lseek_r)
/home/brusli/.mcuxpressotools/arm-gnu-toolchain-14.2.rel1-x86_64-arm-none-eabi/bin/../lib/gcc/arm-none-eabi/14.2.1/../../../../arm-none-eabi/lib/thumb/v8-m.main+fp/hard/libc_nano.a(libc_a-readr.o)
                              /home/brusli/.mcuxpressotools/arm-gnu-toolchain-14.2.rel1-x86_64-arm-none-eabi/bin/../lib/gcc/arm-none-eabi/14.2.1/../../../../arm-none-eabi/lib/thumb/v8-m.main+fp/hard/libc_nano.a(libc_a-stdio.o) (_read_r)
/home/brusli/.mcuxpressotools/arm-gnu-toolchain-14.2.rel1-x86_64-arm-none-eabi/bin/../lib/gcc/arm-none-eabi/14.2.1/../../../../arm-none-eabi/lib/thumb/v8-m.main+fp/hard/libc_nano.a(libc_a-sbrkr.o)
                              /home/brusli/.mcuxpressotools/arm-gnu-toolchain-14.2.rel1-x86_64-arm-none-eabi/bin/../lib/gcc/arm-none-eabi/14.2.1/../../../../arm-none-eabi/lib/thumb/v8-m.main+fp/hard/libc_nano.a(libc_a-mallocr.o) (_sbrk_r)
/home/brusli/.mcuxpressotools/arm-gnu-toolchain-14.2.rel1-x86_64-arm-none-eabi/bin/../lib/gcc/arm-none-eabi/14.2.1/../../../../arm-none-eabi/lib/thumb/v8-m.main+fp/hard/libc_nano.a(libc_a-writer.o)
                              /home/brusli/.mcuxpressotools/arm-gnu-toolchain-14.2.rel1-x86_64-arm-none-eabi/bin/../lib/gcc/arm-none-eabi/14.2.1/../../../../arm-none-eabi/lib/thumb/v8-m.main+fp/hard/libc_nano.a(libc_a-stdio.o) (_write_r)
/home/brusli/.mcuxpressotools/arm-gnu-toolchain-14.2.rel1-x86_64-arm-none-eabi/bin/../lib/gcc/arm-none-eabi/14.2.1/../../../../arm-none-eabi/lib/thumb/v8-m.main+fp/hard/libc_nano.a(libc_a-errno.o)
                              CMakeFiles/led_blinky_peripheral_cm33_core0.elf.dir/home/brusli/Documents/Projects/NXP/main/sdks/main_testing_sdk/devices/MCXN947/utilities/fsl_syscall_stub.c.obj (__errno)
/home/brusli/.mcuxpressotools/arm-gnu-toolchain-14.2.rel1-x86_64-arm-none-eabi/bin/../lib/gcc/arm-none-eabi/14.2.1/../../../../arm-none-eabi/lib/thumb/v8-m.main+fp/hard/libc_nano.a(libc_a-init.o)
                              /home/brusli/.mcuxpressotools/arm-gnu-toolchain-14.2.rel1-x86_64-arm-none-eabi/bin/../lib/gcc/arm-none-eabi/14.2.1/../../../../arm-none-eabi/lib/thumb/v8-m.main+fp/hard/crt0.o (__libc_init_array)
/home/brusli/.mcuxpressotools/arm-gnu-toolchain-14.2.rel1-x86_64-arm-none-eabi/bin/../lib/gcc/arm-none-eabi/14.2.1/../../../../arm-none-eabi/lib/thumb/v8-m.main+fp/hard/libc_nano.a(libc_a-lock.o)
                              /home/brusli/.mcuxpressotools/arm-gnu-toolchain-14.2.rel1-x86_64-arm-none-eabi/bin/../lib/gcc/arm-none-eabi/14.2.1/../../../../arm-none-eabi/lib/thumb/v8-m.main+fp/hard/libc_nano.a(libc_a-findfp.o) (__retarget_lock_init_recursive)
/home/brusli/.mcuxpressotools/arm-gnu-toolchain-14.2.rel1-x86_64-arm-none-eabi/bin/../lib/gcc/arm-none-eabi/14.2.1/../../../../arm-none-eabi/lib/thumb/v8-m.main+fp/hard/libc_nano.a(libc_a-strlen.o)
                              CMakeFiles/led_blinky_peripheral_cm33_core0.elf.dir/home/brusli/Documents/Projects/NXP/main/MCX_LAB_6_OLED/MCX_LAB_6_OLED/oled.c.obj (strlen)
/home/brusli/.mcuxpressotools/arm-gnu-toolchain-14.2.rel1-x86_64-arm-none-eabi/bin/../lib/gcc/arm-none-eabi/14.2.1/../../../../arm-none-eabi/lib/thumb/v8-m.main+fp/hard/libc_nano.a(libc_a-freer.o)
                              /home/brusli/.mcuxpressotools/arm-gnu-toolchain-14.2.rel1-x86_64-arm-none-eabi/bin/../lib/gcc/arm-none-eabi/14.2.1/../../../../arm-none-eabi/lib/thumb/v8-m.main+fp/hard/libc_nano.a(libc_a-malloc.o) (_free_r)
/home/brusli/.mcuxpressotools/arm-gnu-toolchain-14.2.rel1-x86_64-arm-none-eabi/bin/../lib/gcc/arm-none-eabi/14.2.1/../../../../arm-none-eabi/lib/thumb/v8-m.main+fp/hard/libc_nano.a(libc_a-nano-svfprintf.o)
                              /home/brusli/.mcuxpressotools/arm-gnu-toolchain-14.2.rel1-x86_64-arm-none-eabi/bin/../lib/gcc/arm-none-eabi/14.2.1/../../../../arm-none-eabi/lib/thumb/v8-m.main+fp/hard/libc_nano.a(libc_a-sprintf.o) (_svfprintf_r)
/home/brusli/.mcuxpressotools/arm-gnu-toolchain-14.2.rel1-x86_64-arm-none-eabi/bin/../lib/gcc/arm-none-eabi/14.2.1/../../../../arm-none-eabi/lib/thumb/v8-m.main+fp/hard/libc_nano.a(libc_a-nano-vfprintf_i.o)
                              /home/brusli/.mcuxpressotools/arm-gnu-toolchain-14.2.rel1-x86_64-arm-none-eabi/bin/../lib/gcc/arm-none-eabi/14.2.1/../../../../arm-none-eabi/lib/thumb/v8-m.main+fp/hard/libc_nano.a(libc_a-nano-svfprintf.o) (_printf_i)
/home/brusli/.mcuxpressotools/arm-gnu-toolchain-14.2.rel1-x86_64-arm-none-eabi/bin/../lib/gcc/arm-none-eabi/14.2.1/../../../../arm-none-eabi/lib/thumb/v8-m.main+fp/hard/libc_nano.a(libc_a-fflush.o)
                              /home/brusli/.mcuxpressotools/arm-gnu-toolchain-14.2.rel1-x86_64-arm-none-eabi/bin/../lib/gcc/arm-none-eabi/14.2.1/../../../../arm-none-eabi/lib/thumb/v8-m.main+fp/hard/libc_nano.a(libc_a-findfp.o) (_fflush_r)
/home/brusli/.mcuxpressotools/arm-gnu-toolchain-14.2.rel1-x86_64-arm-none-eabi/bin/../lib/gcc/arm-none-eabi/14.2.1/../../../../arm-none-eabi/lib/thumb/v8-m.main+fp/hard/libc_nano.a(libc_a-memmove.o)
                              /home/brusli/.mcuxpressotools/arm-gnu-toolchain-14.2.rel1-x86_64-arm-none-eabi/bin/../lib/gcc/arm-none-eabi/14.2.1/../../../../arm-none-eabi/lib/thumb/v8-m.main+fp/hard/libc_nano.a(libc_a-nano-svfprintf.o) (memmove)
/home/brusli/.mcuxpressotools/arm-gnu-toolchain-14.2.rel1-x86_64-arm-none-eabi/bin/../lib/gcc/arm-none-eabi/14.2.1/../../../../arm-none-eabi/lib/thumb/v8-m.main+fp/hard/libc_nano.a(libc_a-memchr-stub.o)
                              /home/brusli/.mcuxpressotools/arm-gnu-toolchain-14.2.rel1-x86_64-arm-none-eabi/bin/../lib/gcc/arm-none-eabi/14.2.1/../../../../arm-none-eabi/lib/thumb/v8-m.main+fp/hard/libc_nano.a(libc_a-nano-svfprintf.o) (memchr)
/home/brusli/.mcuxpressotools/arm-gnu-toolchain-14.2.rel1-x86_64-arm-none-eabi/bin/../lib/gcc/arm-none-eabi/14.2.1/../../../../arm-none-eabi/lib/thumb/v8-m.main+fp/hard/libc_nano.a(libc_a-reallocr.o)
                              /home/brusli/.mcuxpressotools/arm-gnu-toolchain-14.2.rel1-x86_64-arm-none-eabi/bin/../lib/gcc/arm-none-eabi/14.2.1/../../../../arm-none-eabi/lib/thumb/v8-m.main+fp/hard/libc_nano.a(libc_a-nano-svfprintf.o) (_realloc_r)
/home/brusli/.mcuxpressotools/arm-gnu-toolchain-14.2.rel1-x86_64-arm-none-eabi/bin/../lib/gcc/arm-none-eabi/14.2.1/../../../../arm-none-eabi/lib/thumb/v8-m.main+fp/hard/libc_nano.a(libc_a-msizer.o)
                              /home/brusli/.mcuxpressotools/arm-gnu-toolchain-14.2.rel1-x86_64-arm-none-eabi/bin/../lib/gcc/arm-none-eabi/14.2.1/../../../../arm-none-eabi/lib/thumb/v8-m.main+fp/hard/libc_nano.a(libc_a-reallocr.o) (_malloc_usable_size_r)
/home/brusli/.mcuxpressotools/arm-gnu-toolchain-14.2.rel1-x86_64-arm-none-eabi/bin/../lib/gcc/arm-none-eabi/14.2.1/../../../../arm-none-eabi/lib/thumb/v8-m.main+fp/hard/libcr_newlib_nohost.a(_exit.o)
                              /home/brusli/.mcuxpressotools/arm-gnu-toolchain-14.2.rel1-x86_64-arm-none-eabi/bin/../lib/gcc/arm-none-eabi/14.2.1/../../../../arm-none-eabi/lib/thumb/v8-m.main+fp/hard/libc_nano.a(libc_a-exit.o) (_exit)

Discarded input sections

 .text          0x00000000        0x0 /home/brusli/.mcuxpressotools/arm-gnu-toolchain-14.2.rel1-x86_64-arm-none-eabi/bin/../lib/gcc/arm-none-eabi/14.2.1/thumb/v8-m.main+fp/hard/crti.o
 .data          0x00000000        0x0 /home/brusli/.mcuxpressotools/arm-gnu-toolchain-14.2.rel1-x86_64-arm-none-eabi/bin/../lib/gcc/arm-none-eabi/14.2.1/thumb/v8-m.main+fp/hard/crti.o
 .bss           0x00000000        0x0 /home/brusli/.mcuxpressotools/arm-gnu-toolchain-14.2.rel1-x86_64-arm-none-eabi/bin/../lib/gcc/arm-none-eabi/14.2.1/thumb/v8-m.main+fp/hard/crti.o
 .text          0x00000000        0x0 /home/brusli/.mcuxpressotools/arm-gnu-toolchain-14.2.rel1-x86_64-arm-none-eabi/bin/../lib/gcc/arm-none-eabi/14.2.1/thumb/v8-m.main+fp/hard/crtbegin.o
 .data          0x00000000        0x0 /home/brusli/.mcuxpressotools/arm-gnu-toolchain-14.2.rel1-x86_64-arm-none-eabi/bin/../lib/gcc/arm-none-eabi/14.2.1/thumb/v8-m.main+fp/hard/crtbegin.o
 .bss           0x00000000        0x0 /home/brusli/.mcuxpressotools/arm-gnu-toolchain-14.2.rel1-x86_64-arm-none-eabi/bin/../lib/gcc/arm-none-eabi/14.2.1/thumb/v8-m.main+fp/hard/crtbegin.o
 .rodata.all_implied_fbits
                0x00000000       0x24 /home/brusli/.mcuxpressotools/arm-gnu-toolchain-14.2.rel1-x86_64-arm-none-eabi/bin/../lib/gcc/arm-none-eabi/14.2.1/thumb/v8-m.main+fp/hard/crtbegin.o
 .data.__dso_handle
                0x00000000        0x4 /home/brusli/.mcuxpressotools/arm-gnu-toolchain-14.2.rel1-x86_64-arm-none-eabi/bin/../lib/gcc/arm-none-eabi/14.2.1/thumb/v8-m.main+fp/hard/crtbegin.o
 .data          0x00000000        0x0 /home/brusli/.mcuxpressotools/arm-gnu-toolchain-14.2.rel1-x86_64-arm-none-eabi/bin/../lib/gcc/arm-none-eabi/14.2.1/../../../../arm-none-eabi/lib/thumb/v8-m.main+fp/hard/crt0.o
 .bss           0x00000000        0x0 /home/brusli/.mcuxpressotools/arm-gnu-toolchain-14.2.rel1-x86_64-arm-none-eabi/bin/../lib/gcc/arm-none-eabi/14.2.1/../../../../arm-none-eabi/lib/thumb/v8-m.main+fp/hard/crt0.o
 .ARM.extab     0x00000000        0x0 /home/brusli/.mcuxpressotools/arm-gnu-toolchain-14.2.rel1-x86_64-arm-none-eabi/bin/../lib/gcc/arm-none-eabi/14.2.1/../../../../arm-none-eabi/lib/thumb/v8-m.main+fp/hard/crt0.o
 .text          0x00000000        0x0 CMakeFiles/led_blinky_peripheral_cm33_core0.elf.dir/home/brusli/Documents/Projects/NXP/main/MCX_LAB_6_OLED/MCX_LAB_6_OLED/led_blinky.c.obj
 .data          0x00000000        0x0 CMakeFiles/led_blinky_peripheral_cm33_core0.elf.dir/home/brusli/Documents/Projects/NXP/main/MCX_LAB_6_OLED/MCX_LAB_6_OLED/led_blinky.c.obj
 .bss           0x00000000        0x0 CMakeFiles/led_blinky_peripheral_cm33_core0.elf.dir/home/brusli/Documents/Projects/NXP/main/MCX_LAB_6_OLED/MCX_LAB_6_OLED/led_blinky.c.obj
 .rodata.num_leds
                0x00000000        0x1 CMakeFiles/led_blinky_peripheral_cm33_core0.elf.dir/home/brusli/Documents/Projects/NXP/main/MCX_LAB_6_OLED/MCX_LAB_6_OLED/led_blinky.c.obj
 .text          0x00000000        0x0 CMakeFiles/led_blinky_peripheral_cm33_core0.elf.dir/home/brusli/Documents/Projects/NXP/main/MCX_LAB_6_OLED/MCX_LAB_6_OLED/peripherals.c.obj
 .data          0x00000000        0x0 CMakeFiles/led_blinky_peripheral_cm33_core0.elf.dir/home/brusli/Documents/Projects/NXP/main/MCX_LAB_6_OLED/MCX_LAB_6_OLED/peripherals.c.obj
 .bss           0x00000000        0x0 CMakeFiles/led_blinky_peripheral_cm33_core0.elf.dir/home/brusli/Documents/Projects/NXP/main/MCX_LAB_6_OLED/MCX_LAB_6_OLED/peripherals.c.obj
 .text          0x00000000        0x0 CMakeFiles/led_blinky_peripheral_cm33_core0.elf.dir/home/brusli/Documents/Projects/NXP/main/MCX_LAB_6_OLED/MCX_LAB_6_OLED/board.c.obj
 .data          0x00000000        0x0 CMakeFiles/led_blinky_peripheral_cm33_core0.elf.dir/home/brusli/Documents/Projects/NXP/main/MCX_LAB_6_OLED/MCX_LAB_6_OLED/board.c.obj
 .bss           0x00000000        0x0 CMakeFiles/led_blinky_peripheral_cm33_core0.elf.dir/home/brusli/Documents/Projects/NXP/main/MCX_LAB_6_OLED/MCX_LAB_6_OLED/board.c.obj
 .text.BOARD_InitDebugConsole_Core1
                0x00000000       0x30 CMakeFiles/led_blinky_peripheral_cm33_core0.elf.dir/home/brusli/Documents/Projects/NXP/main/MCX_LAB_6_OLED/MCX_LAB_6_OLED/board.c.obj
 .rodata        0x00000000        0x6 CMakeFiles/led_blinky_peripheral_cm33_core0.elf.dir/home/brusli/Documents/Projects/NXP/main/MCX_LAB_6_OLED/MCX_LAB_6_OLED/board.c.obj
 .text.BOARD_PowerMode_OD
                0x00000000       0x3c CMakeFiles/led_blinky_peripheral_cm33_core0.elf.dir/home/brusli/Documents/Projects/NXP/main/MCX_LAB_6_OLED/MCX_LAB_6_OLED/board.c.obj
 .text          0x00000000        0x0 CMakeFiles/led_blinky_peripheral_cm33_core0.elf.dir/home/brusli/Documents/Projects/NXP/main/MCX_LAB_6_OLED/MCX_LAB_6_OLED/clock_config.c.obj
 .data          0x00000000        0x0 CMakeFiles/led_blinky_peripheral_cm33_core0.elf.dir/home/brusli/Documents/Projects/NXP/main/MCX_LAB_6_OLED/MCX_LAB_6_OLED/clock_config.c.obj
 .bss           0x00000000        0x0 CMakeFiles/led_blinky_peripheral_cm33_core0.elf.dir/home/brusli/Documents/Projects/NXP/main/MCX_LAB_6_OLED/MCX_LAB_6_OLED/clock_config.c.obj
 .text.BOARD_BootClockFRO12M
                0x00000000       0x9c CMakeFiles/led_blinky_peripheral_cm33_core0.elf.dir/home/brusli/Documents/Projects/NXP/main/MCX_LAB_6_OLED/MCX_LAB_6_OLED/clock_config.c.obj
 .text.BOARD_BootClockFROHF48M
                0x00000000       0xb0 CMakeFiles/led_blinky_peripheral_cm33_core0.elf.dir/home/brusli/Documents/Projects/NXP/main/MCX_LAB_6_OLED/MCX_LAB_6_OLED/clock_config.c.obj
 .text.BOARD_BootClockFROHF144M
                0x00000000       0xb0 CMakeFiles/led_blinky_peripheral_cm33_core0.elf.dir/home/brusli/Documents/Projects/NXP/main/MCX_LAB_6_OLED/MCX_LAB_6_OLED/clock_config.c.obj
 .text.BOARD_BootClockPLL100M
                0x00000000       0xf0 CMakeFiles/led_blinky_peripheral_cm33_core0.elf.dir/home/brusli/Documents/Projects/NXP/main/MCX_LAB_6_OLED/MCX_LAB_6_OLED/clock_config.c.obj
 .text          0x00000000        0x0 CMakeFiles/led_blinky_peripheral_cm33_core0.elf.dir/home/brusli/Documents/Projects/NXP/main/MCX_LAB_6_OLED/MCX_LAB_6_OLED/pin_mux.c.obj
 .data          0x00000000        0x0 CMakeFiles/led_blinky_peripheral_cm33_core0.elf.dir/home/brusli/Documents/Projects/NXP/main/MCX_LAB_6_OLED/MCX_LAB_6_OLED/pin_mux.c.obj
 .bss           0x00000000        0x0 CMakeFiles/led_blinky_peripheral_cm33_core0.elf.dir/home/brusli/Documents/Projects/NXP/main/MCX_LAB_6_OLED/MCX_LAB_6_OLED/pin_mux.c.obj
 .text.BOARD_InitSWD_DEBUGPins
                0x00000000       0xa4 CMakeFiles/led_blinky_peripheral_cm33_core0.elf.dir/home/brusli/Documents/Projects/NXP/main/MCX_LAB_6_OLED/MCX_LAB_6_OLED/pin_mux.c.obj
 .text.SHIELD_ADCPins
                0x00000000        0xe CMakeFiles/led_blinky_peripheral_cm33_core0.elf.dir/home/brusli/Documents/Projects/NXP/main/MCX_LAB_6_OLED/MCX_LAB_6_OLED/pin_mux.c.obj
 .text          0x00000000        0x0 CMakeFiles/led_blinky_peripheral_cm33_core0.elf.dir/home/brusli/Documents/Projects/NXP/main/MCX_LAB_6_OLED/MCX_LAB_6_OLED/hardware_init.c.obj
 .data          0x00000000        0x0 CMakeFiles/led_blinky_peripheral_cm33_core0.elf.dir/home/brusli/Documents/Projects/NXP/main/MCX_LAB_6_OLED/MCX_LAB_6_OLED/hardware_init.c.obj
 .bss           0x00000000        0x0 CMakeFiles/led_blinky_peripheral_cm33_core0.elf.dir/home/brusli/Documents/Projects/NXP/main/MCX_LAB_6_OLED/MCX_LAB_6_OLED/hardware_init.c.obj
 .text.BOARD_InitHardware
                0x00000000        0xe CMakeFiles/led_blinky_peripheral_cm33_core0.elf.dir/home/brusli/Documents/Projects/NXP/main/MCX_LAB_6_OLED/MCX_LAB_6_OLED/hardware_init.c.obj
 .debug_info    0x00000000       0x8d CMakeFiles/led_blinky_peripheral_cm33_core0.elf.dir/home/brusli/Documents/Projects/NXP/main/MCX_LAB_6_OLED/MCX_LAB_6_OLED/hardware_init.c.obj
 .debug_abbrev  0x00000000       0x43 CMakeFiles/led_blinky_peripheral_cm33_core0.elf.dir/home/brusli/Documents/Projects/NXP/main/MCX_LAB_6_OLED/MCX_LAB_6_OLED/hardware_init.c.obj
 .debug_aranges
                0x00000000       0x20 CMakeFiles/led_blinky_peripheral_cm33_core0.elf.dir/home/brusli/Documents/Projects/NXP/main/MCX_LAB_6_OLED/MCX_LAB_6_OLED/hardware_init.c.obj
 .debug_rnglists
                0x00000000       0x13 CMakeFiles/led_blinky_peripheral_cm33_core0.elf.dir/home/brusli/Documents/Projects/NXP/main/MCX_LAB_6_OLED/MCX_LAB_6_OLED/hardware_init.c.obj
 .debug_line    0x00000000       0x89 CMakeFiles/led_blinky_peripheral_cm33_core0.elf.dir/home/brusli/Documents/Projects/NXP/main/MCX_LAB_6_OLED/MCX_LAB_6_OLED/hardware_init.c.obj
 .debug_str     0x00000000      0x235 CMakeFiles/led_blinky_peripheral_cm33_core0.elf.dir/home/brusli/Documents/Projects/NXP/main/MCX_LAB_6_OLED/MCX_LAB_6_OLED/hardware_init.c.obj
 .comment       0x00000000       0x46 CMakeFiles/led_blinky_peripheral_cm33_core0.elf.dir/home/brusli/Documents/Projects/NXP/main/MCX_LAB_6_OLED/MCX_LAB_6_OLED/hardware_init.c.obj
 .debug_frame   0x00000000       0x30 CMakeFiles/led_blinky_peripheral_cm33_core0.elf.dir/home/brusli/Documents/Projects/NXP/main/MCX_LAB_6_OLED/MCX_LAB_6_OLED/hardware_init.c.obj
 .ARM.attributes
                0x00000000       0x3a CMakeFiles/led_blinky_peripheral_cm33_core0.elf.dir/home/brusli/Documents/Projects/NXP/main/MCX_LAB_6_OLED/MCX_LAB_6_OLED/hardware_init.c.obj
 .text          0x00000000        0x0 CMakeFiles/led_blinky_peripheral_cm33_core0.elf.dir/home/brusli/Documents/Projects/NXP/main/MCX_LAB_6_OLED/MCX_LAB_6_OLED/oled.c.obj
 .data          0x00000000        0x0 CMakeFiles/led_blinky_peripheral_cm33_core0.elf.dir/home/brusli/Documents/Projects/NXP/main/MCX_LAB_6_OLED/MCX_LAB_6_OLED/oled.c.obj
 .bss           0x00000000        0x0 CMakeFiles/led_blinky_peripheral_cm33_core0.elf.dir/home/brusli/Documents/Projects/NXP/main/MCX_LAB_6_OLED/MCX_LAB_6_OLED/oled.c.obj
 .text.writeString
                0x00000000       0x8c CMakeFiles/led_blinky_peripheral_cm33_core0.elf.dir/home/brusli/Documents/Projects/NXP/main/MCX_LAB_6_OLED/MCX_LAB_6_OLED/oled.c.obj
 .text.printVar
                0x00000000       0x3c CMakeFiles/led_blinky_peripheral_cm33_core0.elf.dir/home/brusli/Documents/Projects/NXP/main/MCX_LAB_6_OLED/MCX_LAB_6_OLED/oled.c.obj
 .text.min      0x00000000       0x28 CMakeFiles/led_blinky_peripheral_cm33_core0.elf.dir/home/brusli/Documents/Projects/NXP/main/MCX_LAB_6_OLED/MCX_LAB_6_OLED/oled.c.obj
 .text.max      0x00000000       0x28 CMakeFiles/led_blinky_peripheral_cm33_core0.elf.dir/home/brusli/Documents/Projects/NXP/main/MCX_LAB_6_OLED/MCX_LAB_6_OLED/oled.c.obj
 .text.testFont
                0x00000000       0x54 CMakeFiles/led_blinky_peripheral_cm33_core0.elf.dir/home/brusli/Documents/Projects/NXP/main/MCX_LAB_6_OLED/MCX_LAB_6_OLED/oled.c.obj
 .text          0x00000000        0x0 CMakeFiles/led_blinky_peripheral_cm33_core0.elf.dir/home/brusli/Documents/Projects/NXP/main/sdks/main_testing_sdk/components/uart/fsl_adapter_lpuart.c.obj
 .data          0x00000000        0x0 CMakeFiles/led_blinky_peripheral_cm33_core0.elf.dir/home/brusli/Documents/Projects/NXP/main/sdks/main_testing_sdk/components/uart/fsl_adapter_lpuart.c.obj
 .bss           0x00000000        0x0 CMakeFiles/led_blinky_peripheral_cm33_core0.elf.dir/home/brusli/Documents/Projects/NXP/main/sdks/main_testing_sdk/components/uart/fsl_adapter_lpuart.c.obj
 .text.HAL_UartDeinit
                0x00000000       0x4c CMakeFiles/led_blinky_peripheral_cm33_core0.elf.dir/home/brusli/Documents/Projects/NXP/main/sdks/main_testing_sdk/components/uart/fsl_adapter_lpuart.c.obj
 .text.HAL_UartEnterLowpower
                0x00000000       0x34 CMakeFiles/led_blinky_peripheral_cm33_core0.elf.dir/home/brusli/Documents/Projects/NXP/main/sdks/main_testing_sdk/components/uart/fsl_adapter_lpuart.c.obj
 .text.HAL_UartExitLowpower
                0x00000000       0x16 CMakeFiles/led_blinky_peripheral_cm33_core0.elf.dir/home/brusli/Documents/Projects/NXP/main/sdks/main_testing_sdk/components/uart/fsl_adapter_lpuart.c.obj
 .rodata.__func__.3
                0x00000000        0xf CMakeFiles/led_blinky_peripheral_cm33_core0.elf.dir/home/brusli/Documents/Projects/NXP/main/sdks/main_testing_sdk/components/uart/fsl_adapter_lpuart.c.obj
 .rodata.__func__.0
                0x00000000       0x16 CMakeFiles/led_blinky_peripheral_cm33_core0.elf.dir/home/brusli/Documents/Projects/NXP/main/sdks/main_testing_sdk/components/uart/fsl_adapter_lpuart.c.obj
 .data          0x00000000        0x0 CMakeFiles/led_blinky_peripheral_cm33_core0.elf.dir/home/brusli/Documents/Projects/NXP/main/sdks/main_testing_sdk/devices/MCXN947/gcc/startup_MCXN947_cm33_core0.S.obj
 .bss           0x00000000        0x0 CMakeFiles/led_blinky_peripheral_cm33_core0.elf.dir/home/brusli/Documents/Projects/NXP/main/sdks/main_testing_sdk/devices/MCXN947/gcc/startup_MCXN947_cm33_core0.S.obj
 .text          0x00000000        0x0 CMakeFiles/led_blinky_peripheral_cm33_core0.elf.dir/home/brusli/Documents/Projects/NXP/main/sdks/main_testing_sdk/devices/MCXN947/system_MCXN947_cm33_core0.c.obj
 .data          0x00000000        0x0 CMakeFiles/led_blinky_peripheral_cm33_core0.elf.dir/home/brusli/Documents/Projects/NXP/main/sdks/main_testing_sdk/devices/MCXN947/system_MCXN947_cm33_core0.c.obj
 .bss           0x00000000        0x0 CMakeFiles/led_blinky_peripheral_cm33_core0.elf.dir/home/brusli/Documents/Projects/NXP/main/sdks/main_testing_sdk/devices/MCXN947/system_MCXN947_cm33_core0.c.obj
 .text.SystemCoreClockUpdate
                0x00000000       0x18 CMakeFiles/led_blinky_peripheral_cm33_core0.elf.dir/home/brusli/Documents/Projects/NXP/main/sdks/main_testing_sdk/devices/MCXN947/system_MCXN947_cm33_core0.c.obj
 .text          0x00000000        0x0 CMakeFiles/led_blinky_peripheral_cm33_core0.elf.dir/home/brusli/Documents/Projects/NXP/main/sdks/main_testing_sdk/devices/MCXN947/drivers/fsl_clock.c.obj
 .data          0x00000000        0x0 CMakeFiles/led_blinky_peripheral_cm33_core0.elf.dir/home/brusli/Documents/Projects/NXP/main/sdks/main_testing_sdk/devices/MCXN947/drivers/fsl_clock.c.obj
 .bss           0x00000000        0x0 CMakeFiles/led_blinky_peripheral_cm33_core0.elf.dir/home/brusli/Documents/Projects/NXP/main/sdks/main_testing_sdk/devices/MCXN947/drivers/fsl_clock.c.obj
 .bss.s_Sai_Mclk_Freq
                0x00000000        0x8 CMakeFiles/led_blinky_peripheral_cm33_core0.elf.dir/home/brusli/Documents/Projects/NXP/main/sdks/main_testing_sdk/devices/MCXN947/drivers/fsl_clock.c.obj
 .bss.s_Sai_Tx_Bclk_Freq
                0x00000000        0x8 CMakeFiles/led_blinky_peripheral_cm33_core0.elf.dir/home/brusli/Documents/Projects/NXP/main/sdks/main_testing_sdk/devices/MCXN947/drivers/fsl_clock.c.obj
 .bss.s_Sai_Rx_Bclk_Freq
                0x00000000        0x8 CMakeFiles/led_blinky_peripheral_cm33_core0.elf.dir/home/brusli/Documents/Projects/NXP/main/sdks/main_testing_sdk/devices/MCXN947/drivers/fsl_clock.c.obj
 .bss.s_Enet_Tx_Clk_Freq
                0x00000000        0x4 CMakeFiles/led_blinky_peripheral_cm33_core0.elf.dir/home/brusli/Documents/Projects/NXP/main/sdks/main_testing_sdk/devices/MCXN947/drivers/fsl_clock.c.obj
 .bss.s_extUpllFreq
                0x00000000        0x4 CMakeFiles/led_blinky_peripheral_cm33_core0.elf.dir/home/brusli/Documents/Projects/NXP/main/sdks/main_testing_sdk/devices/MCXN947/drivers/fsl_clock.c.obj
 .text.CLOCK_SetupExtClocking
                0x00000000      0x158 CMakeFiles/led_blinky_peripheral_cm33_core0.elf.dir/home/brusli/Documents/Projects/NXP/main/sdks/main_testing_sdk/devices/MCXN947/drivers/fsl_clock.c.obj
 .text.CLOCK_SetupExtRefClocking
                0x00000000      0x16c CMakeFiles/led_blinky_peripheral_cm33_core0.elf.dir/home/brusli/Documents/Projects/NXP/main/sdks/main_testing_sdk/devices/MCXN947/drivers/fsl_clock.c.obj
 .text.CLOCK_SetupOsc32KClocking
                0x00000000       0xd8 CMakeFiles/led_blinky_peripheral_cm33_core0.elf.dir/home/brusli/Documents/Projects/NXP/main/sdks/main_testing_sdk/devices/MCXN947/drivers/fsl_clock.c.obj
 .text.CLOCK_GetDefaultOsc32KConfig
                0x00000000       0x50 CMakeFiles/led_blinky_peripheral_cm33_core0.elf.dir/home/brusli/Documents/Projects/NXP/main/sdks/main_testing_sdk/devices/MCXN947/drivers/fsl_clock.c.obj
 .text.CLOCK_SetupOsc32KClockingConfig
                0x00000000      0x134 CMakeFiles/led_blinky_peripheral_cm33_core0.elf.dir/home/brusli/Documents/Projects/NXP/main/sdks/main_testing_sdk/devices/MCXN947/drivers/fsl_clock.c.obj
 .text.CLOCK_SetupClk16KClocking
                0x00000000       0x70 CMakeFiles/led_blinky_peripheral_cm33_core0.elf.dir/home/brusli/Documents/Projects/NXP/main/sdks/main_testing_sdk/devices/MCXN947/drivers/fsl_clock.c.obj
 .text.CLOCK_FROHFTrimConfig
                0x00000000       0x98 CMakeFiles/led_blinky_peripheral_cm33_core0.elf.dir/home/brusli/Documents/Projects/NXP/main/sdks/main_testing_sdk/devices/MCXN947/drivers/fsl_clock.c.obj
 .text.CLOCK_FRO12MTrimConfig
                0x00000000       0xbc CMakeFiles/led_blinky_peripheral_cm33_core0.elf.dir/home/brusli/Documents/Projects/NXP/main/sdks/main_testing_sdk/devices/MCXN947/drivers/fsl_clock.c.obj
 .text.CLOCK_SetSysOscMonitorMode
                0x00000000       0x38 CMakeFiles/led_blinky_peripheral_cm33_core0.elf.dir/home/brusli/Documents/Projects/NXP/main/sdks/main_testing_sdk/devices/MCXN947/drivers/fsl_clock.c.obj
 .text.CLOCK_SetRoscMonitorMode
                0x00000000       0x38 CMakeFiles/led_blinky_peripheral_cm33_core0.elf.dir/home/brusli/Documents/Projects/NXP/main/sdks/main_testing_sdk/devices/MCXN947/drivers/fsl_clock.c.obj
 .text.CLOCK_SetUpllMonitorMode
                0x00000000       0x38 CMakeFiles/led_blinky_peripheral_cm33_core0.elf.dir/home/brusli/Documents/Projects/NXP/main/sdks/main_testing_sdk/devices/MCXN947/drivers/fsl_clock.c.obj
 .text.CLOCK_SetFLASHAccessCyclesForFreq
                0x00000000       0xf4 CMakeFiles/led_blinky_peripheral_cm33_core0.elf.dir/home/brusli/Documents/Projects/NXP/main/sdks/main_testing_sdk/devices/MCXN947/drivers/fsl_clock.c.obj
 .text.VBAT_SetOscConfig
                0x00000000       0xbc CMakeFiles/led_blinky_peripheral_cm33_core0.elf.dir/home/brusli/Documents/Projects/NXP/main/sdks/main_testing_sdk/devices/MCXN947/drivers/fsl_clock.c.obj
 .text.CLOCK_GetClockAttachId
                0x00000000       0xb0 CMakeFiles/led_blinky_peripheral_cm33_core0.elf.dir/home/brusli/Documents/Projects/NXP/main/sdks/main_testing_sdk/devices/MCXN947/drivers/fsl_clock.c.obj
 .text.CLOCK_GetClkDiv
                0x00000000       0x48 CMakeFiles/led_blinky_peripheral_cm33_core0.elf.dir/home/brusli/Documents/Projects/NXP/main/sdks/main_testing_sdk/devices/MCXN947/drivers/fsl_clock.c.obj
 .text.CLOCK_HaltClkDiv
                0x00000000       0x2c CMakeFiles/led_blinky_peripheral_cm33_core0.elf.dir/home/brusli/Documents/Projects/NXP/main/sdks/main_testing_sdk/devices/MCXN947/drivers/fsl_clock.c.obj
 .text.CLOCK_SetupClockCtrl
                0x00000000       0x28 CMakeFiles/led_blinky_peripheral_cm33_core0.elf.dir/home/brusli/Documents/Projects/NXP/main/sdks/main_testing_sdk/devices/MCXN947/drivers/fsl_clock.c.obj
 .text.CLOCK_GetFreq
                0x00000000      0x15c CMakeFiles/led_blinky_peripheral_cm33_core0.elf.dir/home/brusli/Documents/Projects/NXP/main/sdks/main_testing_sdk/devices/MCXN947/drivers/fsl_clock.c.obj
 .text.CLOCK_GetCTimerClkFreq
                0x00000000       0xfc CMakeFiles/led_blinky_peripheral_cm33_core0.elf.dir/home/brusli/Documents/Projects/NXP/main/sdks/main_testing_sdk/devices/MCXN947/drivers/fsl_clock.c.obj
 .text.CLOCK_GetAdcClkFreq
                0x00000000       0xc4 CMakeFiles/led_blinky_peripheral_cm33_core0.elf.dir/home/brusli/Documents/Projects/NXP/main/sdks/main_testing_sdk/devices/MCXN947/drivers/fsl_clock.c.obj
 .text.CLOCK_GetUsb0ClkFreq
                0x00000000       0x98 CMakeFiles/led_blinky_peripheral_cm33_core0.elf.dir/home/brusli/Documents/Projects/NXP/main/sdks/main_testing_sdk/devices/MCXN947/drivers/fsl_clock.c.obj
 .text.CLOCK_GetSctClkFreq
                0x00000000       0xa8 CMakeFiles/led_blinky_peripheral_cm33_core0.elf.dir/home/brusli/Documents/Projects/NXP/main/sdks/main_testing_sdk/devices/MCXN947/drivers/fsl_clock.c.obj
 .text.CLOCK_GetTsiClkFreq
                0x00000000       0x4c CMakeFiles/led_blinky_peripheral_cm33_core0.elf.dir/home/brusli/Documents/Projects/NXP/main/sdks/main_testing_sdk/devices/MCXN947/drivers/fsl_clock.c.obj
 .text.CLOCK_GetSincFilterClkFreq
                0x00000000       0x80 CMakeFiles/led_blinky_peripheral_cm33_core0.elf.dir/home/brusli/Documents/Projects/NXP/main/sdks/main_testing_sdk/devices/MCXN947/drivers/fsl_clock.c.obj
 .text.CLOCK_GetDacClkFreq
                0x00000000       0x9c CMakeFiles/led_blinky_peripheral_cm33_core0.elf.dir/home/brusli/Documents/Projects/NXP/main/sdks/main_testing_sdk/devices/MCXN947/drivers/fsl_clock.c.obj
 .text.CLOCK_GetFlexspiClkFreq
                0x00000000       0x5e CMakeFiles/led_blinky_peripheral_cm33_core0.elf.dir/home/brusli/Documents/Projects/NXP/main/sdks/main_testing_sdk/devices/MCXN947/drivers/fsl_clock.c.obj
 .text.CLOCK_GetExtUpllFreq
                0x00000000       0x18 CMakeFiles/led_blinky_peripheral_cm33_core0.elf.dir/home/brusli/Documents/Projects/NXP/main/sdks/main_testing_sdk/devices/MCXN947/drivers/fsl_clock.c.obj
 .text.CLOCK_SetExtUpllFreq
                0x00000000       0x20 CMakeFiles/led_blinky_peripheral_cm33_core0.elf.dir/home/brusli/Documents/Projects/NXP/main/sdks/main_testing_sdk/devices/MCXN947/drivers/fsl_clock.c.obj
 .text.CLOCK_GetI3cClkFreq
                0x00000000       0xb4 CMakeFiles/led_blinky_peripheral_cm33_core0.elf.dir/home/brusli/Documents/Projects/NXP/main/sdks/main_testing_sdk/devices/MCXN947/drivers/fsl_clock.c.obj
 .text.CLOCK_GetI3cSTCClkFreq
                0x00000000       0xe8 CMakeFiles/led_blinky_peripheral_cm33_core0.elf.dir/home/brusli/Documents/Projects/NXP/main/sdks/main_testing_sdk/devices/MCXN947/drivers/fsl_clock.c.obj
 .text.CLOCK_GetI3cSClkFreq
                0x00000000       0x6c CMakeFiles/led_blinky_peripheral_cm33_core0.elf.dir/home/brusli/Documents/Projects/NXP/main/sdks/main_testing_sdk/devices/MCXN947/drivers/fsl_clock.c.obj
 .text.CLOCK_GetMicfilClkFreq
                0x00000000       0xb0 CMakeFiles/led_blinky_peripheral_cm33_core0.elf.dir/home/brusli/Documents/Projects/NXP/main/sdks/main_testing_sdk/devices/MCXN947/drivers/fsl_clock.c.obj
 .text.CLOCK_GetUsdhcClkFreq
                0x00000000       0x90 CMakeFiles/led_blinky_peripheral_cm33_core0.elf.dir/home/brusli/Documents/Projects/NXP/main/sdks/main_testing_sdk/devices/MCXN947/drivers/fsl_clock.c.obj
 .text.CLOCK_GetFlexioClkFreq
                0x00000000       0x90 CMakeFiles/led_blinky_peripheral_cm33_core0.elf.dir/home/brusli/Documents/Projects/NXP/main/sdks/main_testing_sdk/devices/MCXN947/drivers/fsl_clock.c.obj
 .text.CLOCK_GetFlexcanClkFreq
                0x00000000       0xb4 CMakeFiles/led_blinky_peripheral_cm33_core0.elf.dir/home/brusli/Documents/Projects/NXP/main/sdks/main_testing_sdk/devices/MCXN947/drivers/fsl_clock.c.obj
 .text.CLOCK_GetEnetRmiiClkFreq
                0x00000000       0x6e CMakeFiles/led_blinky_peripheral_cm33_core0.elf.dir/home/brusli/Documents/Projects/NXP/main/sdks/main_testing_sdk/devices/MCXN947/drivers/fsl_clock.c.obj
 .text.CLOCK_GetEnetPtpRefClkFreq
                0x00000000       0x84 CMakeFiles/led_blinky_peripheral_cm33_core0.elf.dir/home/brusli/Documents/Projects/NXP/main/sdks/main_testing_sdk/devices/MCXN947/drivers/fsl_clock.c.obj
 .text.CLOCK_SetupEnetTxClk
                0x00000000       0x20 CMakeFiles/led_blinky_peripheral_cm33_core0.elf.dir/home/brusli/Documents/Projects/NXP/main/sdks/main_testing_sdk/devices/MCXN947/drivers/fsl_clock.c.obj
 .text.CLOCK_GetEnetTxClkFreq
                0x00000000       0x18 CMakeFiles/led_blinky_peripheral_cm33_core0.elf.dir/home/brusli/Documents/Projects/NXP/main/sdks/main_testing_sdk/devices/MCXN947/drivers/fsl_clock.c.obj
 .text.CLOCK_GetEwm0ClkFreq
                0x00000000       0x40 CMakeFiles/led_blinky_peripheral_cm33_core0.elf.dir/home/brusli/Documents/Projects/NXP/main/sdks/main_testing_sdk/devices/MCXN947/drivers/fsl_clock.c.obj
 .text.CLOCK_GetWdtClkFreq
                0x00000000       0xb0 CMakeFiles/led_blinky_peripheral_cm33_core0.elf.dir/home/brusli/Documents/Projects/NXP/main/sdks/main_testing_sdk/devices/MCXN947/drivers/fsl_clock.c.obj
 .text.CLOCK_GetOstimerClkFreq
                0x00000000       0x50 CMakeFiles/led_blinky_peripheral_cm33_core0.elf.dir/home/brusli/Documents/Projects/NXP/main/sdks/main_testing_sdk/devices/MCXN947/drivers/fsl_clock.c.obj
 .text.CLOCK_GetCmpFClkFreq
                0x00000000       0xe4 CMakeFiles/led_blinky_peripheral_cm33_core0.elf.dir/home/brusli/Documents/Projects/NXP/main/sdks/main_testing_sdk/devices/MCXN947/drivers/fsl_clock.c.obj
 .text.CLOCK_GetCmpRRClkFreq
                0x00000000       0xe4 CMakeFiles/led_blinky_peripheral_cm33_core0.elf.dir/home/brusli/Documents/Projects/NXP/main/sdks/main_testing_sdk/devices/MCXN947/drivers/fsl_clock.c.obj
 .text.CLOCK_GetSaiClkFreq
                0x00000000       0xb4 CMakeFiles/led_blinky_peripheral_cm33_core0.elf.dir/home/brusli/Documents/Projects/NXP/main/sdks/main_testing_sdk/devices/MCXN947/drivers/fsl_clock.c.obj
 .text.CLOCK_SetupSaiMclk
                0x00000000       0x24 CMakeFiles/led_blinky_peripheral_cm33_core0.elf.dir/home/brusli/Documents/Projects/NXP/main/sdks/main_testing_sdk/devices/MCXN947/drivers/fsl_clock.c.obj
 .text.CLOCK_SetupSaiTxBclk
                0x00000000       0x24 CMakeFiles/led_blinky_peripheral_cm33_core0.elf.dir/home/brusli/Documents/Projects/NXP/main/sdks/main_testing_sdk/devices/MCXN947/drivers/fsl_clock.c.obj
 .text.CLOCK_SetupSaiRxBclk
                0x00000000       0x24 CMakeFiles/led_blinky_peripheral_cm33_core0.elf.dir/home/brusli/Documents/Projects/NXP/main/sdks/main_testing_sdk/devices/MCXN947/drivers/fsl_clock.c.obj
 .text.CLOCK_GetSaiMclkFreq
                0x00000000       0x20 CMakeFiles/led_blinky_peripheral_cm33_core0.elf.dir/home/brusli/Documents/Projects/NXP/main/sdks/main_testing_sdk/devices/MCXN947/drivers/fsl_clock.c.obj
 .text.CLOCK_GetSaiTxBclkFreq
                0x00000000       0x20 CMakeFiles/led_blinky_peripheral_cm33_core0.elf.dir/home/brusli/Documents/Projects/NXP/main/sdks/main_testing_sdk/devices/MCXN947/drivers/fsl_clock.c.obj
 .text.CLOCK_GetSaiRxBclkFreq
                0x00000000       0x20 CMakeFiles/led_blinky_peripheral_cm33_core0.elf.dir/home/brusli/Documents/Projects/NXP/main/sdks/main_testing_sdk/devices/MCXN947/drivers/fsl_clock.c.obj
 .text.CLOCK_GetEmvsimClkFreq
                0x00000000       0xc0 CMakeFiles/led_blinky_peripheral_cm33_core0.elf.dir/home/brusli/Documents/Projects/NXP/main/sdks/main_testing_sdk/devices/MCXN947/drivers/fsl_clock.c.obj
 .text.CLOCK_GetPLLOutFromSetup
                0x00000000       0x82 CMakeFiles/led_blinky_peripheral_cm33_core0.elf.dir/home/brusli/Documents/Projects/NXP/main/sdks/main_testing_sdk/devices/MCXN947/drivers/fsl_clock.c.obj
 .text.CLOCK_SetupPLLData
                0x00000000       0xc0 CMakeFiles/led_blinky_peripheral_cm33_core0.elf.dir/home/brusli/Documents/Projects/NXP/main/sdks/main_testing_sdk/devices/MCXN947/drivers/fsl_clock.c.obj
 .text.CLOCK_EnableOstimer32kClock
                0x00000000        0xe CMakeFiles/led_blinky_peripheral_cm33_core0.elf.dir/home/brusli/Documents/Projects/NXP/main/sdks/main_testing_sdk/devices/MCXN947/drivers/fsl_clock.c.obj
 .text.CLOCK_GetClk144MFreq
                0x00000000       0x2c CMakeFiles/led_blinky_peripheral_cm33_core0.elf.dir/home/brusli/Documents/Projects/NXP/main/sdks/main_testing_sdk/devices/MCXN947/drivers/fsl_clock.c.obj
 .text.CLOCK_GetMainClkFreq
                0x00000000       0x90 CMakeFiles/led_blinky_peripheral_cm33_core0.elf.dir/home/brusli/Documents/Projects/NXP/main/sdks/main_testing_sdk/devices/MCXN947/drivers/fsl_clock.c.obj
 .text.CLOCK_GetCoreSysClkFreq
                0x00000000       0x2c CMakeFiles/led_blinky_peripheral_cm33_core0.elf.dir/home/brusli/Documents/Projects/NXP/main/sdks/main_testing_sdk/devices/MCXN947/drivers/fsl_clock.c.obj
 .text.CLOCK_GetSystickClkFreq
                0x00000000       0x74 CMakeFiles/led_blinky_peripheral_cm33_core0.elf.dir/home/brusli/Documents/Projects/NXP/main/sdks/main_testing_sdk/devices/MCXN947/drivers/fsl_clock.c.obj
 .text.CLOCK_GetClockOutClkFreq
                0x00000000       0xa8 CMakeFiles/led_blinky_peripheral_cm33_core0.elf.dir/home/brusli/Documents/Projects/NXP/main/sdks/main_testing_sdk/devices/MCXN947/drivers/fsl_clock.c.obj
 .text.pllFindSel
                0x00000000       0x9c CMakeFiles/led_blinky_peripheral_cm33_core0.elf.dir/home/brusli/Documents/Projects/NXP/main/sdks/main_testing_sdk/devices/MCXN947/drivers/fsl_clock.c.obj
 .text.FindGreatestCommonDivisor
                0x00000000       0x3a CMakeFiles/led_blinky_peripheral_cm33_core0.elf.dir/home/brusli/Documents/Projects/NXP/main/sdks/main_testing_sdk/devices/MCXN947/drivers/fsl_clock.c.obj
 .bss.s_PllSetupCacheStruct
                0x00000000       0x38 CMakeFiles/led_blinky_peripheral_cm33_core0.elf.dir/home/brusli/Documents/Projects/NXP/main/sdks/main_testing_sdk/devices/MCXN947/drivers/fsl_clock.c.obj
 .bss.s_FinHzCache
                0x00000000        0x8 CMakeFiles/led_blinky_peripheral_cm33_core0.elf.dir/home/brusli/Documents/Projects/NXP/main/sdks/main_testing_sdk/devices/MCXN947/drivers/fsl_clock.c.obj
 .bss.s_FoutHzCache
                0x00000000        0x8 CMakeFiles/led_blinky_peripheral_cm33_core0.elf.dir/home/brusli/Documents/Projects/NXP/main/sdks/main_testing_sdk/devices/MCXN947/drivers/fsl_clock.c.obj
 .bss.s_UseSSCache
                0x00000000        0x2 CMakeFiles/led_blinky_peripheral_cm33_core0.elf.dir/home/brusli/Documents/Projects/NXP/main/sdks/main_testing_sdk/devices/MCXN947/drivers/fsl_clock.c.obj
 .bss.s_PllSetupCacheIdx
                0x00000000        0x4 CMakeFiles/led_blinky_peripheral_cm33_core0.elf.dir/home/brusli/Documents/Projects/NXP/main/sdks/main_testing_sdk/devices/MCXN947/drivers/fsl_clock.c.obj
 .text.CLOCK_GetPllConfig
                0x00000000      0x1c8 CMakeFiles/led_blinky_peripheral_cm33_core0.elf.dir/home/brusli/Documents/Projects/NXP/main/sdks/main_testing_sdk/devices/MCXN947/drivers/fsl_clock.c.obj
 .text.CLOCK_GetPllConfigInternal
                0x00000000      0x238 CMakeFiles/led_blinky_peripheral_cm33_core0.elf.dir/home/brusli/Documents/Projects/NXP/main/sdks/main_testing_sdk/devices/MCXN947/drivers/fsl_clock.c.obj
 .text.CLOCK_GetPLLInClockRateFromSetup
                0x00000000       0x52 CMakeFiles/led_blinky_peripheral_cm33_core0.elf.dir/home/brusli/Documents/Projects/NXP/main/sdks/main_testing_sdk/devices/MCXN947/drivers/fsl_clock.c.obj
 .text.findPllPreDivFromSetup
                0x00000000       0x38 CMakeFiles/led_blinky_peripheral_cm33_core0.elf.dir/home/brusli/Documents/Projects/NXP/main/sdks/main_testing_sdk/devices/MCXN947/drivers/fsl_clock.c.obj
 .text.findPllPostDivFromSetup
                0x00000000       0x54 CMakeFiles/led_blinky_peripheral_cm33_core0.elf.dir/home/brusli/Documents/Projects/NXP/main/sdks/main_testing_sdk/devices/MCXN947/drivers/fsl_clock.c.obj
 .text.findPllMMultFromSetup
                0x00000000       0xa0 CMakeFiles/led_blinky_peripheral_cm33_core0.elf.dir/home/brusli/Documents/Projects/NXP/main/sdks/main_testing_sdk/devices/MCXN947/drivers/fsl_clock.c.obj
 .text.CLOCK_EnableUsbfsClock
                0x00000000       0x3e CMakeFiles/led_blinky_peripheral_cm33_core0.elf.dir/home/brusli/Documents/Projects/NXP/main/sdks/main_testing_sdk/devices/MCXN947/drivers/fsl_clock.c.obj
 .text.CLOCK_EnableUsbhsPhyPllClock
                0x00000000      0x170 CMakeFiles/led_blinky_peripheral_cm33_core0.elf.dir/home/brusli/Documents/Projects/NXP/main/sdks/main_testing_sdk/devices/MCXN947/drivers/fsl_clock.c.obj
 .text.CLOCK_DisableUsbhsPhyPllClock
                0x00000000       0x20 CMakeFiles/led_blinky_peripheral_cm33_core0.elf.dir/home/brusli/Documents/Projects/NXP/main/sdks/main_testing_sdk/devices/MCXN947/drivers/fsl_clock.c.obj
 .text.CLOCK_EnableUsbhsClock
                0x00000000       0x44 CMakeFiles/led_blinky_peripheral_cm33_core0.elf.dir/home/brusli/Documents/Projects/NXP/main/sdks/main_testing_sdk/devices/MCXN947/drivers/fsl_clock.c.obj
 .rodata        0x00000000        0x8 CMakeFiles/led_blinky_peripheral_cm33_core0.elf.dir/home/brusli/Documents/Projects/NXP/main/sdks/main_testing_sdk/devices/MCXN947/drivers/fsl_clock.c.obj
 .text.CLOCK_FIRCAutoTrimWithSOF
                0x00000000       0x30 CMakeFiles/led_blinky_peripheral_cm33_core0.elf.dir/home/brusli/Documents/Projects/NXP/main/sdks/main_testing_sdk/devices/MCXN947/drivers/fsl_clock.c.obj
 .text          0x00000000        0x0 CMakeFiles/led_blinky_peripheral_cm33_core0.elf.dir/home/brusli/Documents/Projects/NXP/main/sdks/main_testing_sdk/devices/MCXN947/drivers/fsl_common.c.obj
 .data          0x00000000        0x0 CMakeFiles/led_blinky_peripheral_cm33_core0.elf.dir/home/brusli/Documents/Projects/NXP/main/sdks/main_testing_sdk/devices/MCXN947/drivers/fsl_common.c.obj
 .bss           0x00000000        0x0 CMakeFiles/led_blinky_peripheral_cm33_core0.elf.dir/home/brusli/Documents/Projects/NXP/main/sdks/main_testing_sdk/devices/MCXN947/drivers/fsl_common.c.obj
 .text.SDK_Malloc
                0x00000000       0xa4 CMakeFiles/led_blinky_peripheral_cm33_core0.elf.dir/home/brusli/Documents/Projects/NXP/main/sdks/main_testing_sdk/devices/MCXN947/drivers/fsl_common.c.obj
 .text.SDK_Free
                0x00000000       0x3a CMakeFiles/led_blinky_peripheral_cm33_core0.elf.dir/home/brusli/Documents/Projects/NXP/main/sdks/main_testing_sdk/devices/MCXN947/drivers/fsl_common.c.obj
 .debug_info    0x00000000      0x214 CMakeFiles/led_blinky_peripheral_cm33_core0.elf.dir/home/brusli/Documents/Projects/NXP/main/sdks/main_testing_sdk/devices/MCXN947/drivers/fsl_common.c.obj
 .debug_abbrev  0x00000000      0x12e CMakeFiles/led_blinky_peripheral_cm33_core0.elf.dir/home/brusli/Documents/Projects/NXP/main/sdks/main_testing_sdk/devices/MCXN947/drivers/fsl_common.c.obj
 .debug_aranges
                0x00000000       0x28 CMakeFiles/led_blinky_peripheral_cm33_core0.elf.dir/home/brusli/Documents/Projects/NXP/main/sdks/main_testing_sdk/devices/MCXN947/drivers/fsl_common.c.obj
 .debug_rnglists
                0x00000000       0x1a CMakeFiles/led_blinky_peripheral_cm33_core0.elf.dir/home/brusli/Documents/Projects/NXP/main/sdks/main_testing_sdk/devices/MCXN947/drivers/fsl_common.c.obj
 .debug_line    0x00000000      0x31a CMakeFiles/led_blinky_peripheral_cm33_core0.elf.dir/home/brusli/Documents/Projects/NXP/main/sdks/main_testing_sdk/devices/MCXN947/drivers/fsl_common.c.obj
 .debug_str     0x00000000      0x327 CMakeFiles/led_blinky_peripheral_cm33_core0.elf.dir/home/brusli/Documents/Projects/NXP/main/sdks/main_testing_sdk/devices/MCXN947/drivers/fsl_common.c.obj
 .comment       0x00000000       0x46 CMakeFiles/led_blinky_peripheral_cm33_core0.elf.dir/home/brusli/Documents/Projects/NXP/main/sdks/main_testing_sdk/devices/MCXN947/drivers/fsl_common.c.obj
 .debug_frame   0x00000000       0x58 CMakeFiles/led_blinky_peripheral_cm33_core0.elf.dir/home/brusli/Documents/Projects/NXP/main/sdks/main_testing_sdk/devices/MCXN947/drivers/fsl_common.c.obj
 .ARM.attributes
                0x00000000       0x3a CMakeFiles/led_blinky_peripheral_cm33_core0.elf.dir/home/brusli/Documents/Projects/NXP/main/sdks/main_testing_sdk/devices/MCXN947/drivers/fsl_common.c.obj
 .text          0x00000000        0x0 CMakeFiles/led_blinky_peripheral_cm33_core0.elf.dir/home/brusli/Documents/Projects/NXP/main/sdks/main_testing_sdk/devices/MCXN947/drivers/fsl_common_arm.c.obj
 .data          0x00000000        0x0 CMakeFiles/led_blinky_peripheral_cm33_core0.elf.dir/home/brusli/Documents/Projects/NXP/main/sdks/main_testing_sdk/devices/MCXN947/drivers/fsl_common_arm.c.obj
 .bss           0x00000000        0x0 CMakeFiles/led_blinky_peripheral_cm33_core0.elf.dir/home/brusli/Documents/Projects/NXP/main/sdks/main_testing_sdk/devices/MCXN947/drivers/fsl_common_arm.c.obj
 .text.MSDK_EnableCpuCycleCounter
                0x00000000       0x68 CMakeFiles/led_blinky_peripheral_cm33_core0.elf.dir/home/brusli/Documents/Projects/NXP/main/sdks/main_testing_sdk/devices/MCXN947/drivers/fsl_common_arm.c.obj
 .text.MSDK_GetCpuCycleCount
                0x00000000       0x18 CMakeFiles/led_blinky_peripheral_cm33_core0.elf.dir/home/brusli/Documents/Projects/NXP/main/sdks/main_testing_sdk/devices/MCXN947/drivers/fsl_common_arm.c.obj
 .rodata.__func__.1
                0x00000000       0x1b CMakeFiles/led_blinky_peripheral_cm33_core0.elf.dir/home/brusli/Documents/Projects/NXP/main/sdks/main_testing_sdk/devices/MCXN947/drivers/fsl_common_arm.c.obj
 .text          0x00000000        0x0 CMakeFiles/led_blinky_peripheral_cm33_core0.elf.dir/home/brusli/Documents/Projects/NXP/main/sdks/main_testing_sdk/devices/MCXN947/drivers/fsl_ctimer.c.obj
 .data          0x00000000        0x0 CMakeFiles/led_blinky_peripheral_cm33_core0.elf.dir/home/brusli/Documents/Projects/NXP/main/sdks/main_testing_sdk/devices/MCXN947/drivers/fsl_ctimer.c.obj
 .bss           0x00000000        0x0 CMakeFiles/led_blinky_peripheral_cm33_core0.elf.dir/home/brusli/Documents/Projects/NXP/main/sdks/main_testing_sdk/devices/MCXN947/drivers/fsl_ctimer.c.obj
 .text.__NVIC_DisableIRQ
                0x00000000       0x48 CMakeFiles/led_blinky_peripheral_cm33_core0.elf.dir/home/brusli/Documents/Projects/NXP/main/sdks/main_testing_sdk/devices/MCXN947/drivers/fsl_ctimer.c.obj
 .text.CLOCK_DisableClock
                0x00000000       0xb8 CMakeFiles/led_blinky_peripheral_cm33_core0.elf.dir/home/brusli/Documents/Projects/NXP/main/sdks/main_testing_sdk/devices/MCXN947/drivers/fsl_ctimer.c.obj
 .text.DisableIRQ
                0x00000000       0x32 CMakeFiles/led_blinky_peripheral_cm33_core0.elf.dir/home/brusli/Documents/Projects/NXP/main/sdks/main_testing_sdk/devices/MCXN947/drivers/fsl_ctimer.c.obj
 .text.CTIMER_Deinit
                0x00000000       0x48 CMakeFiles/led_blinky_peripheral_cm33_core0.elf.dir/home/brusli/Documents/Projects/NXP/main/sdks/main_testing_sdk/devices/MCXN947/drivers/fsl_ctimer.c.obj
 .text.CTIMER_GetDefaultConfig
                0x00000000       0x4c CMakeFiles/led_blinky_peripheral_cm33_core0.elf.dir/home/brusli/Documents/Projects/NXP/main/sdks/main_testing_sdk/devices/MCXN947/drivers/fsl_ctimer.c.obj
 .text.CTIMER_SetupPwm
                0x00000000      0x214 CMakeFiles/led_blinky_peripheral_cm33_core0.elf.dir/home/brusli/Documents/Projects/NXP/main/sdks/main_testing_sdk/devices/MCXN947/drivers/fsl_ctimer.c.obj
 .text.CTIMER_SetupPwmPeriod
                0x00000000       0xd8 CMakeFiles/led_blinky_peripheral_cm33_core0.elf.dir/home/brusli/Documents/Projects/NXP/main/sdks/main_testing_sdk/devices/MCXN947/drivers/fsl_ctimer.c.obj
 .text.CTIMER_UpdatePwmDutycycle
                0x00000000       0xd4 CMakeFiles/led_blinky_peripheral_cm33_core0.elf.dir/home/brusli/Documents/Projects/NXP/main/sdks/main_testing_sdk/devices/MCXN947/drivers/fsl_ctimer.c.obj
 .text.CTIMER_GetOutputMatchStatus
                0x00000000       0x1e CMakeFiles/led_blinky_peripheral_cm33_core0.elf.dir/home/brusli/Documents/Projects/NXP/main/sdks/main_testing_sdk/devices/MCXN947/drivers/fsl_ctimer.c.obj
 .text.CTIMER_SetupCapture
                0x00000000       0x9c CMakeFiles/led_blinky_peripheral_cm33_core0.elf.dir/home/brusli/Documents/Projects/NXP/main/sdks/main_testing_sdk/devices/MCXN947/drivers/fsl_ctimer.c.obj
 .rodata.__func__.2
                0x00000000       0x18 CMakeFiles/led_blinky_peripheral_cm33_core0.elf.dir/home/brusli/Documents/Projects/NXP/main/sdks/main_testing_sdk/devices/MCXN947/drivers/fsl_ctimer.c.obj
 .rodata.__func__.1
                0x00000000       0x10 CMakeFiles/led_blinky_peripheral_cm33_core0.elf.dir/home/brusli/Documents/Projects/NXP/main/sdks/main_testing_sdk/devices/MCXN947/drivers/fsl_ctimer.c.obj
 .rodata.__func__.0
                0x00000000       0x1a CMakeFiles/led_blinky_peripheral_cm33_core0.elf.dir/home/brusli/Documents/Projects/NXP/main/sdks/main_testing_sdk/devices/MCXN947/drivers/fsl_ctimer.c.obj
 .text          0x00000000        0x0 CMakeFiles/led_blinky_peripheral_cm33_core0.elf.dir/home/brusli/Documents/Projects/NXP/main/sdks/main_testing_sdk/devices/MCXN947/drivers/fsl_gpio.c.obj
 .data          0x00000000        0x0 CMakeFiles/led_blinky_peripheral_cm33_core0.elf.dir/home/brusli/Documents/Projects/NXP/main/sdks/main_testing_sdk/devices/MCXN947/drivers/fsl_gpio.c.obj
 .bss           0x00000000        0x0 CMakeFiles/led_blinky_peripheral_cm33_core0.elf.dir/home/brusli/Documents/Projects/NXP/main/sdks/main_testing_sdk/devices/MCXN947/drivers/fsl_gpio.c.obj
 .text.GPIO_PortInit
                0x00000000       0x18 CMakeFiles/led_blinky_peripheral_cm33_core0.elf.dir/home/brusli/Documents/Projects/NXP/main/sdks/main_testing_sdk/devices/MCXN947/drivers/fsl_gpio.c.obj
 .text.GPIO_PortDenit
                0x00000000       0x18 CMakeFiles/led_blinky_peripheral_cm33_core0.elf.dir/home/brusli/Documents/Projects/NXP/main/sdks/main_testing_sdk/devices/MCXN947/drivers/fsl_gpio.c.obj
 .text.GPIO_GetVersionInfo
                0x00000000       0x38 CMakeFiles/led_blinky_peripheral_cm33_core0.elf.dir/home/brusli/Documents/Projects/NXP/main/sdks/main_testing_sdk/devices/MCXN947/drivers/fsl_gpio.c.obj
 .text.GPIO_GpioGetInterruptFlags
                0x00000000       0x1a CMakeFiles/led_blinky_peripheral_cm33_core0.elf.dir/home/brusli/Documents/Projects/NXP/main/sdks/main_testing_sdk/devices/MCXN947/drivers/fsl_gpio.c.obj
 .text.GPIO_PinGetInterruptFlag
                0x00000000       0x2a CMakeFiles/led_blinky_peripheral_cm33_core0.elf.dir/home/brusli/Documents/Projects/NXP/main/sdks/main_testing_sdk/devices/MCXN947/drivers/fsl_gpio.c.obj
 .text.GPIO_GpioClearInterruptFlags
                0x00000000       0x1e CMakeFiles/led_blinky_peripheral_cm33_core0.elf.dir/home/brusli/Documents/Projects/NXP/main/sdks/main_testing_sdk/devices/MCXN947/drivers/fsl_gpio.c.obj
 .text.GPIO_PinClearInterruptFlag
                0x00000000       0x2e CMakeFiles/led_blinky_peripheral_cm33_core0.elf.dir/home/brusli/Documents/Projects/NXP/main/sdks/main_testing_sdk/devices/MCXN947/drivers/fsl_gpio.c.obj
 .text          0x00000000        0x0 CMakeFiles/led_blinky_peripheral_cm33_core0.elf.dir/home/brusli/Documents/Projects/NXP/main/sdks/main_testing_sdk/devices/MCXN947/drivers/fsl_lpadc.c.obj
 .data          0x00000000        0x0 CMakeFiles/led_blinky_peripheral_cm33_core0.elf.dir/home/brusli/Documents/Projects/NXP/main/sdks/main_testing_sdk/devices/MCXN947/drivers/fsl_lpadc.c.obj
 .bss           0x00000000        0x0 CMakeFiles/led_blinky_peripheral_cm33_core0.elf.dir/home/brusli/Documents/Projects/NXP/main/sdks/main_testing_sdk/devices/MCXN947/drivers/fsl_lpadc.c.obj
 .text.CLOCK_DisableClock
                0x00000000       0xb8 CMakeFiles/led_blinky_peripheral_cm33_core0.elf.dir/home/brusli/Documents/Projects/NXP/main/sdks/main_testing_sdk/devices/MCXN947/drivers/fsl_lpadc.c.obj
 .text.LPADC_GetConvResultCount
                0x00000000       0x26 CMakeFiles/led_blinky_peripheral_cm33_core0.elf.dir/home/brusli/Documents/Projects/NXP/main/sdks/main_testing_sdk/devices/MCXN947/drivers/fsl_lpadc.c.obj
 .text.LPADC_EnableOffsetCalibration
                0x00000000       0x38 CMakeFiles/led_blinky_peripheral_cm33_core0.elf.dir/home/brusli/Documents/Projects/NXP/main/sdks/main_testing_sdk/devices/MCXN947/drivers/fsl_lpadc.c.obj
 .text.LPADC_GetGainConvResult
                0x00000000      0x134 CMakeFiles/led_blinky_peripheral_cm33_core0.elf.dir/home/brusli/Documents/Projects/NXP/main/sdks/main_testing_sdk/devices/MCXN947/drivers/fsl_lpadc.c.obj
 .text.LPADC_GetDefaultConfig
                0x00000000       0x5c CMakeFiles/led_blinky_peripheral_cm33_core0.elf.dir/home/brusli/Documents/Projects/NXP/main/sdks/main_testing_sdk/devices/MCXN947/drivers/fsl_lpadc.c.obj
 .text.LPADC_Deinit
                0x00000000       0x30 CMakeFiles/led_blinky_peripheral_cm33_core0.elf.dir/home/brusli/Documents/Projects/NXP/main/sdks/main_testing_sdk/devices/MCXN947/drivers/fsl_lpadc.c.obj
 .text.LPADC_GetConvResult
                0x00000000       0x80 CMakeFiles/led_blinky_peripheral_cm33_core0.elf.dir/home/brusli/Documents/Projects/NXP/main/sdks/main_testing_sdk/devices/MCXN947/drivers/fsl_lpadc.c.obj
 .text.LPADC_GetDefaultConvTriggerConfig
                0x00000000       0x60 CMakeFiles/led_blinky_peripheral_cm33_core0.elf.dir/home/brusli/Documents/Projects/NXP/main/sdks/main_testing_sdk/devices/MCXN947/drivers/fsl_lpadc.c.obj
 .text.LPADC_GetDefaultConvCommandConfig
                0x00000000       0x94 CMakeFiles/led_blinky_peripheral_cm33_core0.elf.dir/home/brusli/Documents/Projects/NXP/main/sdks/main_testing_sdk/devices/MCXN947/drivers/fsl_lpadc.c.obj
 .text.LPADC_DoOffsetCalibration
                0x00000000       0x2a CMakeFiles/led_blinky_peripheral_cm33_core0.elf.dir/home/brusli/Documents/Projects/NXP/main/sdks/main_testing_sdk/devices/MCXN947/drivers/fsl_lpadc.c.obj
 .text.LPADC_DoAutoCalibration
                0x00000000       0x1c CMakeFiles/led_blinky_peripheral_cm33_core0.elf.dir/home/brusli/Documents/Projects/NXP/main/sdks/main_testing_sdk/devices/MCXN947/drivers/fsl_lpadc.c.obj
 .text.LPADC_PrepareAutoCalibration
                0x00000000       0x54 CMakeFiles/led_blinky_peripheral_cm33_core0.elf.dir/home/brusli/Documents/Projects/NXP/main/sdks/main_testing_sdk/devices/MCXN947/drivers/fsl_lpadc.c.obj
 .text.LPADC_FinishAutoCalibration
                0x00000000      0x104 CMakeFiles/led_blinky_peripheral_cm33_core0.elf.dir/home/brusli/Documents/Projects/NXP/main/sdks/main_testing_sdk/devices/MCXN947/drivers/fsl_lpadc.c.obj
 .text.LPADC_GetCalibrationValue
                0x00000000       0xc0 CMakeFiles/led_blinky_peripheral_cm33_core0.elf.dir/home/brusli/Documents/Projects/NXP/main/sdks/main_testing_sdk/devices/MCXN947/drivers/fsl_lpadc.c.obj
 .text.LPADC_SetCalibrationValue
                0x00000000       0xd4 CMakeFiles/led_blinky_peripheral_cm33_core0.elf.dir/home/brusli/Documents/Projects/NXP/main/sdks/main_testing_sdk/devices/MCXN947/drivers/fsl_lpadc.c.obj
 .rodata.__func__.8
                0x00000000       0x14 CMakeFiles/led_blinky_peripheral_cm33_core0.elf.dir/home/brusli/Documents/Projects/NXP/main/sdks/main_testing_sdk/devices/MCXN947/drivers/fsl_lpadc.c.obj
 .rodata.__func__.5
                0x00000000       0x22 CMakeFiles/led_blinky_peripheral_cm33_core0.elf.dir/home/brusli/Documents/Projects/NXP/main/sdks/main_testing_sdk/devices/MCXN947/drivers/fsl_lpadc.c.obj
 .rodata.__func__.3
                0x00000000       0x22 CMakeFiles/led_blinky_peripheral_cm33_core0.elf.dir/home/brusli/Documents/Projects/NXP/main/sdks/main_testing_sdk/devices/MCXN947/drivers/fsl_lpadc.c.obj
 .rodata.__func__.2
                0x00000000       0x1d CMakeFiles/led_blinky_peripheral_cm33_core0.elf.dir/home/brusli/Documents/Projects/NXP/main/sdks/main_testing_sdk/devices/MCXN947/drivers/fsl_lpadc.c.obj
 .rodata.__func__.1
                0x00000000       0x1a CMakeFiles/led_blinky_peripheral_cm33_core0.elf.dir/home/brusli/Documents/Projects/NXP/main/sdks/main_testing_sdk/devices/MCXN947/drivers/fsl_lpadc.c.obj
 .rodata.__func__.0
                0x00000000       0x1a CMakeFiles/led_blinky_peripheral_cm33_core0.elf.dir/home/brusli/Documents/Projects/NXP/main/sdks/main_testing_sdk/devices/MCXN947/drivers/fsl_lpadc.c.obj
 .text          0x00000000        0x0 CMakeFiles/led_blinky_peripheral_cm33_core0.elf.dir/home/brusli/Documents/Projects/NXP/main/sdks/main_testing_sdk/devices/MCXN947/drivers/fsl_lpflexcomm.c.obj
 .data          0x00000000        0x0 CMakeFiles/led_blinky_peripheral_cm33_core0.elf.dir/home/brusli/Documents/Projects/NXP/main/sdks/main_testing_sdk/devices/MCXN947/drivers/fsl_lpflexcomm.c.obj
 .bss           0x00000000        0x0 CMakeFiles/led_blinky_peripheral_cm33_core0.elf.dir/home/brusli/Documents/Projects/NXP/main/sdks/main_testing_sdk/devices/MCXN947/drivers/fsl_lpflexcomm.c.obj
 .text.CLOCK_DisableClock
                0x00000000       0xb8 CMakeFiles/led_blinky_peripheral_cm33_core0.elf.dir/home/brusli/Documents/Projects/NXP/main/sdks/main_testing_sdk/devices/MCXN947/drivers/fsl_lpflexcomm.c.obj
 .rodata.kFlexcommIrqs
                0x00000000       0x14 CMakeFiles/led_blinky_peripheral_cm33_core0.elf.dir/home/brusli/Documents/Projects/NXP/main/sdks/main_testing_sdk/devices/MCXN947/drivers/fsl_lpflexcomm.c.obj
 .text.LP_FLEXCOMM_GetInstance
                0x00000000       0x5c CMakeFiles/led_blinky_peripheral_cm33_core0.elf.dir/home/brusli/Documents/Projects/NXP/main/sdks/main_testing_sdk/devices/MCXN947/drivers/fsl_lpflexcomm.c.obj
 .text.LP_FLEXCOMM_Deinit
                0x00000000       0x54 CMakeFiles/led_blinky_peripheral_cm33_core0.elf.dir/home/brusli/Documents/Projects/NXP/main/sdks/main_testing_sdk/devices/MCXN947/drivers/fsl_lpflexcomm.c.obj
 .text.LP_FLEXCOMM_SetIRQHandler
                0x00000000       0x80 CMakeFiles/led_blinky_peripheral_cm33_core0.elf.dir/home/brusli/Documents/Projects/NXP/main/sdks/main_testing_sdk/devices/MCXN947/drivers/fsl_lpflexcomm.c.obj
 .rodata.__func__.4
                0x00000000       0x18 CMakeFiles/led_blinky_peripheral_cm33_core0.elf.dir/home/brusli/Documents/Projects/NXP/main/sdks/main_testing_sdk/devices/MCXN947/drivers/fsl_lpflexcomm.c.obj
 .rodata.__func__.1
                0x00000000       0x13 CMakeFiles/led_blinky_peripheral_cm33_core0.elf.dir/home/brusli/Documents/Projects/NXP/main/sdks/main_testing_sdk/devices/MCXN947/drivers/fsl_lpflexcomm.c.obj
 .rodata.__func__.0
                0x00000000       0x1a CMakeFiles/led_blinky_peripheral_cm33_core0.elf.dir/home/brusli/Documents/Projects/NXP/main/sdks/main_testing_sdk/devices/MCXN947/drivers/fsl_lpflexcomm.c.obj
 .text          0x00000000        0x0 CMakeFiles/led_blinky_peripheral_cm33_core0.elf.dir/home/brusli/Documents/Projects/NXP/main/sdks/main_testing_sdk/devices/MCXN947/drivers/fsl_lpi2c.c.obj
 .data          0x00000000        0x0 CMakeFiles/led_blinky_peripheral_cm33_core0.elf.dir/home/brusli/Documents/Projects/NXP/main/sdks/main_testing_sdk/devices/MCXN947/drivers/fsl_lpi2c.c.obj
 .bss           0x00000000        0x0 CMakeFiles/led_blinky_peripheral_cm33_core0.elf.dir/home/brusli/Documents/Projects/NXP/main/sdks/main_testing_sdk/devices/MCXN947/drivers/fsl_lpi2c.c.obj
 .text.__NVIC_EnableIRQ
                0x00000000       0x3c CMakeFiles/led_blinky_peripheral_cm33_core0.elf.dir/home/brusli/Documents/Projects/NXP/main/sdks/main_testing_sdk/devices/MCXN947/drivers/fsl_lpi2c.c.obj
 .text.CLOCK_DisableClock
                0x00000000       0xb8 CMakeFiles/led_blinky_peripheral_cm33_core0.elf.dir/home/brusli/Documents/Projects/NXP/main/sdks/main_testing_sdk/devices/MCXN947/drivers/fsl_lpi2c.c.obj
 .text.EnableIRQ
                0x00000000       0x32 CMakeFiles/led_blinky_peripheral_cm33_core0.elf.dir/home/brusli/Documents/Projects/NXP/main/sdks/main_testing_sdk/devices/MCXN947/drivers/fsl_lpi2c.c.obj
 .text.LPI2C_MasterEnableInterrupts
                0x00000000       0x22 CMakeFiles/led_blinky_peripheral_cm33_core0.elf.dir/home/brusli/Documents/Projects/NXP/main/sdks/main_testing_sdk/devices/MCXN947/drivers/fsl_lpi2c.c.obj
 .text.LPI2C_MasterDisableInterrupts
                0x00000000       0x24 CMakeFiles/led_blinky_peripheral_cm33_core0.elf.dir/home/brusli/Documents/Projects/NXP/main/sdks/main_testing_sdk/devices/MCXN947/drivers/fsl_lpi2c.c.obj
 .text.LPI2C_MasterGetEnabledInterrupts
                0x00000000       0x18 CMakeFiles/led_blinky_peripheral_cm33_core0.elf.dir/home/brusli/Documents/Projects/NXP/main/sdks/main_testing_sdk/devices/MCXN947/drivers/fsl_lpi2c.c.obj
 .text.LPI2C_SlaveReset
                0x00000000       0x24 CMakeFiles/led_blinky_peripheral_cm33_core0.elf.dir/home/brusli/Documents/Projects/NXP/main/sdks/main_testing_sdk/devices/MCXN947/drivers/fsl_lpi2c.c.obj
 .text.LPI2C_SlaveGetStatusFlags
                0x00000000       0x1a CMakeFiles/led_blinky_peripheral_cm33_core0.elf.dir/home/brusli/Documents/Projects/NXP/main/sdks/main_testing_sdk/devices/MCXN947/drivers/fsl_lpi2c.c.obj
 .text.LPI2C_SlaveClearStatusFlags
                0x00000000       0x1e CMakeFiles/led_blinky_peripheral_cm33_core0.elf.dir/home/brusli/Documents/Projects/NXP/main/sdks/main_testing_sdk/devices/MCXN947/drivers/fsl_lpi2c.c.obj
 .text.LPI2C_SlaveEnableInterrupts
                0x00000000       0x26 CMakeFiles/led_blinky_peripheral_cm33_core0.elf.dir/home/brusli/Documents/Projects/NXP/main/sdks/main_testing_sdk/devices/MCXN947/drivers/fsl_lpi2c.c.obj
 .text.LPI2C_SlaveDisableInterrupts
                0x00000000       0x28 CMakeFiles/led_blinky_peripheral_cm33_core0.elf.dir/home/brusli/Documents/Projects/NXP/main/sdks/main_testing_sdk/devices/MCXN947/drivers/fsl_lpi2c.c.obj
 .text.LPI2C_SlaveTransmitAck
                0x00000000       0x28 CMakeFiles/led_blinky_peripheral_cm33_core0.elf.dir/home/brusli/Documents/Projects/NXP/main/sdks/main_testing_sdk/devices/MCXN947/drivers/fsl_lpi2c.c.obj
 .rodata.kLpi2cIrqs
                0x00000000       0x14 CMakeFiles/led_blinky_peripheral_cm33_core0.elf.dir/home/brusli/Documents/Projects/NXP/main/sdks/main_testing_sdk/devices/MCXN947/drivers/fsl_lpi2c.c.obj
 .bss.s_lpi2cMasterIsr
                0x00000000        0x4 CMakeFiles/led_blinky_peripheral_cm33_core0.elf.dir/home/brusli/Documents/Projects/NXP/main/sdks/main_testing_sdk/devices/MCXN947/drivers/fsl_lpi2c.c.obj
 .bss.s_lpi2cSlaveIsr
                0x00000000        0x4 CMakeFiles/led_blinky_peripheral_cm33_core0.elf.dir/home/brusli/Documents/Projects/NXP/main/sdks/main_testing_sdk/devices/MCXN947/drivers/fsl_lpi2c.c.obj
 .bss.s_lpi2cMasterHandle
                0x00000000       0x28 CMakeFiles/led_blinky_peripheral_cm33_core0.elf.dir/home/brusli/Documents/Projects/NXP/main/sdks/main_testing_sdk/devices/MCXN947/drivers/fsl_lpi2c.c.obj
 .bss.s_lpi2cSlaveHandle
                0x00000000       0x28 CMakeFiles/led_blinky_peripheral_cm33_core0.elf.dir/home/brusli/Documents/Projects/NXP/main/sdks/main_testing_sdk/devices/MCXN947/drivers/fsl_lpi2c.c.obj
 .text.LPI2C_MasterDeinit
                0x00000000       0x44 CMakeFiles/led_blinky_peripheral_cm33_core0.elf.dir/home/brusli/Documents/Projects/NXP/main/sdks/main_testing_sdk/devices/MCXN947/drivers/fsl_lpi2c.c.obj
 .text.LPI2C_MasterConfigureDataMatch
                0x00000000       0x80 CMakeFiles/led_blinky_peripheral_cm33_core0.elf.dir/home/brusli/Documents/Projects/NXP/main/sdks/main_testing_sdk/devices/MCXN947/drivers/fsl_lpi2c.c.obj
 .text.LPI2C_MasterReceive
                0x00000000       0xe8 CMakeFiles/led_blinky_peripheral_cm33_core0.elf.dir/home/brusli/Documents/Projects/NXP/main/sdks/main_testing_sdk/devices/MCXN947/drivers/fsl_lpi2c.c.obj
 .text.LPI2C_MasterTransferBlocking
                0x00000000      0x204 CMakeFiles/led_blinky_peripheral_cm33_core0.elf.dir/home/brusli/Documents/Projects/NXP/main/sdks/main_testing_sdk/devices/MCXN947/drivers/fsl_lpi2c.c.obj
 .text.LPI2C_MasterTransferCreateHandle
                0x00000000       0xbc CMakeFiles/led_blinky_peripheral_cm33_core0.elf.dir/home/brusli/Documents/Projects/NXP/main/sdks/main_testing_sdk/devices/MCXN947/drivers/fsl_lpi2c.c.obj
 .text.LPI2C_RunTransferStateMachine
                0x00000000      0x350 CMakeFiles/led_blinky_peripheral_cm33_core0.elf.dir/home/brusli/Documents/Projects/NXP/main/sdks/main_testing_sdk/devices/MCXN947/drivers/fsl_lpi2c.c.obj
 .text.LPI2C_InitTransferStateMachine
                0x00000000      0x118 CMakeFiles/led_blinky_peripheral_cm33_core0.elf.dir/home/brusli/Documents/Projects/NXP/main/sdks/main_testing_sdk/devices/MCXN947/drivers/fsl_lpi2c.c.obj
 .text.LPI2C_MasterTransferNonBlocking
                0x00000000       0xf0 CMakeFiles/led_blinky_peripheral_cm33_core0.elf.dir/home/brusli/Documents/Projects/NXP/main/sdks/main_testing_sdk/devices/MCXN947/drivers/fsl_lpi2c.c.obj
 .text.LPI2C_MasterTransferGetCount
                0x00000000       0xb4 CMakeFiles/led_blinky_peripheral_cm33_core0.elf.dir/home/brusli/Documents/Projects/NXP/main/sdks/main_testing_sdk/devices/MCXN947/drivers/fsl_lpi2c.c.obj
 .text.LPI2C_MasterTransferAbort
                0x00000000       0x54 CMakeFiles/led_blinky_peripheral_cm33_core0.elf.dir/home/brusli/Documents/Projects/NXP/main/sdks/main_testing_sdk/devices/MCXN947/drivers/fsl_lpi2c.c.obj
 .text.LPI2C_MasterTransferHandleIRQ
                0x00000000       0xc0 CMakeFiles/led_blinky_peripheral_cm33_core0.elf.dir/home/brusli/Documents/Projects/NXP/main/sdks/main_testing_sdk/devices/MCXN947/drivers/fsl_lpi2c.c.obj
 .text.LPI2C_SlaveGetDefaultConfig
                0x00000000       0x80 CMakeFiles/led_blinky_peripheral_cm33_core0.elf.dir/home/brusli/Documents/Projects/NXP/main/sdks/main_testing_sdk/devices/MCXN947/drivers/fsl_lpi2c.c.obj
 .text.LPI2C_SlaveInit
                0x00000000      0x1bc CMakeFiles/led_blinky_peripheral_cm33_core0.elf.dir/home/brusli/Documents/Projects/NXP/main/sdks/main_testing_sdk/devices/MCXN947/drivers/fsl_lpi2c.c.obj
 .text.LPI2C_SlaveDeinit
                0x00000000       0x44 CMakeFiles/led_blinky_peripheral_cm33_core0.elf.dir/home/brusli/Documents/Projects/NXP/main/sdks/main_testing_sdk/devices/MCXN947/drivers/fsl_lpi2c.c.obj
 .text.LPI2C_SlaveCheckAndClearError
                0x00000000       0x50 CMakeFiles/led_blinky_peripheral_cm33_core0.elf.dir/home/brusli/Documents/Projects/NXP/main/sdks/main_testing_sdk/devices/MCXN947/drivers/fsl_lpi2c.c.obj
 .text.LPI2C_SlaveSend
                0x00000000       0xe8 CMakeFiles/led_blinky_peripheral_cm33_core0.elf.dir/home/brusli/Documents/Projects/NXP/main/sdks/main_testing_sdk/devices/MCXN947/drivers/fsl_lpi2c.c.obj
 .text.LPI2C_SlaveReceive
                0x00000000       0xe8 CMakeFiles/led_blinky_peripheral_cm33_core0.elf.dir/home/brusli/Documents/Projects/NXP/main/sdks/main_testing_sdk/devices/MCXN947/drivers/fsl_lpi2c.c.obj
 .text.LPI2C_SlaveTransferCreateHandle
                0x00000000       0xc4 CMakeFiles/led_blinky_peripheral_cm33_core0.elf.dir/home/brusli/Documents/Projects/NXP/main/sdks/main_testing_sdk/devices/MCXN947/drivers/fsl_lpi2c.c.obj
 .text.LPI2C_SlaveTransferNonBlocking
                0x00000000       0xb4 CMakeFiles/led_blinky_peripheral_cm33_core0.elf.dir/home/brusli/Documents/Projects/NXP/main/sdks/main_testing_sdk/devices/MCXN947/drivers/fsl_lpi2c.c.obj
 .text.LPI2C_SlaveTransferGetCount
                0x00000000       0x68 CMakeFiles/led_blinky_peripheral_cm33_core0.elf.dir/home/brusli/Documents/Projects/NXP/main/sdks/main_testing_sdk/devices/MCXN947/drivers/fsl_lpi2c.c.obj
 .text.LPI2C_SlaveTransferAbort
                0x00000000       0x60 CMakeFiles/led_blinky_peripheral_cm33_core0.elf.dir/home/brusli/Documents/Projects/NXP/main/sdks/main_testing_sdk/devices/MCXN947/drivers/fsl_lpi2c.c.obj
 .text.LPI2C_SlaveTransferHandleIRQ
                0x00000000      0x310 CMakeFiles/led_blinky_peripheral_cm33_core0.elf.dir/home/brusli/Documents/Projects/NXP/main/sdks/main_testing_sdk/devices/MCXN947/drivers/fsl_lpi2c.c.obj
 .text.LPI2C_CommonIRQHandler
                0x00000000       0x7c CMakeFiles/led_blinky_peripheral_cm33_core0.elf.dir/home/brusli/Documents/Projects/NXP/main/sdks/main_testing_sdk/devices/MCXN947/drivers/fsl_lpi2c.c.obj
 .rodata.__func__.15
                0x00000000       0x14 CMakeFiles/led_blinky_peripheral_cm33_core0.elf.dir/home/brusli/Documents/Projects/NXP/main/sdks/main_testing_sdk/devices/MCXN947/drivers/fsl_lpi2c.c.obj
 .rodata.__func__.13
                0x00000000       0x1d CMakeFiles/led_blinky_peripheral_cm33_core0.elf.dir/home/brusli/Documents/Projects/NXP/main/sdks/main_testing_sdk/devices/MCXN947/drivers/fsl_lpi2c.c.obj
 .rodata.__func__.12
                0x00000000       0x21 CMakeFiles/led_blinky_peripheral_cm33_core0.elf.dir/home/brusli/Documents/Projects/NXP/main/sdks/main_testing_sdk/devices/MCXN947/drivers/fsl_lpi2c.c.obj
 .rodata.__func__.11
                0x00000000       0x1e CMakeFiles/led_blinky_peripheral_cm33_core0.elf.dir/home/brusli/Documents/Projects/NXP/main/sdks/main_testing_sdk/devices/MCXN947/drivers/fsl_lpi2c.c.obj
 .rodata.__func__.10
                0x00000000       0x20 CMakeFiles/led_blinky_peripheral_cm33_core0.elf.dir/home/brusli/Documents/Projects/NXP/main/sdks/main_testing_sdk/devices/MCXN947/drivers/fsl_lpi2c.c.obj
 .rodata.__func__.9
                0x00000000       0x1d CMakeFiles/led_blinky_peripheral_cm33_core0.elf.dir/home/brusli/Documents/Projects/NXP/main/sdks/main_testing_sdk/devices/MCXN947/drivers/fsl_lpi2c.c.obj
 .rodata.__func__.8
                0x00000000       0x1e CMakeFiles/led_blinky_peripheral_cm33_core0.elf.dir/home/brusli/Documents/Projects/NXP/main/sdks/main_testing_sdk/devices/MCXN947/drivers/fsl_lpi2c.c.obj
 .rodata.__func__.7
                0x00000000       0x10 CMakeFiles/led_blinky_peripheral_cm33_core0.elf.dir/home/brusli/Documents/Projects/NXP/main/sdks/main_testing_sdk/devices/MCXN947/drivers/fsl_lpi2c.c.obj
 .rodata.__func__.6
                0x00000000       0x10 CMakeFiles/led_blinky_peripheral_cm33_core0.elf.dir/home/brusli/Documents/Projects/NXP/main/sdks/main_testing_sdk/devices/MCXN947/drivers/fsl_lpi2c.c.obj
 .rodata.__func__.5
                0x00000000       0x13 CMakeFiles/led_blinky_peripheral_cm33_core0.elf.dir/home/brusli/Documents/Projects/NXP/main/sdks/main_testing_sdk/devices/MCXN947/drivers/fsl_lpi2c.c.obj
 .rodata.__func__.4
                0x00000000       0x20 CMakeFiles/led_blinky_peripheral_cm33_core0.elf.dir/home/brusli/Documents/Projects/NXP/main/sdks/main_testing_sdk/devices/MCXN947/drivers/fsl_lpi2c.c.obj
 .rodata.__func__.3
                0x00000000       0x1f CMakeFiles/led_blinky_peripheral_cm33_core0.elf.dir/home/brusli/Documents/Projects/NXP/main/sdks/main_testing_sdk/devices/MCXN947/drivers/fsl_lpi2c.c.obj
 .rodata.__func__.2
                0x00000000       0x1c CMakeFiles/led_blinky_peripheral_cm33_core0.elf.dir/home/brusli/Documents/Projects/NXP/main/sdks/main_testing_sdk/devices/MCXN947/drivers/fsl_lpi2c.c.obj
 .rodata.__func__.1
                0x00000000       0x19 CMakeFiles/led_blinky_peripheral_cm33_core0.elf.dir/home/brusli/Documents/Projects/NXP/main/sdks/main_testing_sdk/devices/MCXN947/drivers/fsl_lpi2c.c.obj
 .rodata.__func__.0
                0x00000000       0x1d CMakeFiles/led_blinky_peripheral_cm33_core0.elf.dir/home/brusli/Documents/Projects/NXP/main/sdks/main_testing_sdk/devices/MCXN947/drivers/fsl_lpi2c.c.obj
 .text          0x00000000        0x0 CMakeFiles/led_blinky_peripheral_cm33_core0.elf.dir/home/brusli/Documents/Projects/NXP/main/sdks/main_testing_sdk/devices/MCXN947/drivers/fsl_lpuart.c.obj
 .data          0x00000000        0x0 CMakeFiles/led_blinky_peripheral_cm33_core0.elf.dir/home/brusli/Documents/Projects/NXP/main/sdks/main_testing_sdk/devices/MCXN947/drivers/fsl_lpuart.c.obj
 .bss           0x00000000        0x0 CMakeFiles/led_blinky_peripheral_cm33_core0.elf.dir/home/brusli/Documents/Projects/NXP/main/sdks/main_testing_sdk/devices/MCXN947/drivers/fsl_lpuart.c.obj
 .text.__NVIC_EnableIRQ
                0x00000000       0x3c CMakeFiles/led_blinky_peripheral_cm33_core0.elf.dir/home/brusli/Documents/Projects/NXP/main/sdks/main_testing_sdk/devices/MCXN947/drivers/fsl_lpuart.c.obj
 .text.EnableIRQ
                0x00000000       0x32 CMakeFiles/led_blinky_peripheral_cm33_core0.elf.dir/home/brusli/Documents/Projects/NXP/main/sdks/main_testing_sdk/devices/MCXN947/drivers/fsl_lpuart.c.obj
 .text.DisableGlobalIRQ
                0x00000000       0x22 CMakeFiles/led_blinky_peripheral_cm33_core0.elf.dir/home/brusli/Documents/Projects/NXP/main/sdks/main_testing_sdk/devices/MCXN947/drivers/fsl_lpuart.c.obj
 .text.EnableGlobalIRQ
                0x00000000       0x20 CMakeFiles/led_blinky_peripheral_cm33_core0.elf.dir/home/brusli/Documents/Projects/NXP/main/sdks/main_testing_sdk/devices/MCXN947/drivers/fsl_lpuart.c.obj
 .rodata.s_lpuartIRQ
                0x00000000       0x14 CMakeFiles/led_blinky_peripheral_cm33_core0.elf.dir/home/brusli/Documents/Projects/NXP/main/sdks/main_testing_sdk/devices/MCXN947/drivers/fsl_lpuart.c.obj
 .text.LPUART_TransferGetRxRingBufferLength
                0x00000000       0x64 CMakeFiles/led_blinky_peripheral_cm33_core0.elf.dir/home/brusli/Documents/Projects/NXP/main/sdks/main_testing_sdk/devices/MCXN947/drivers/fsl_lpuart.c.obj
 .text.LPUART_TransferIsRxRingBufferFull
                0x00000000       0x50 CMakeFiles/led_blinky_peripheral_cm33_core0.elf.dir/home/brusli/Documents/Projects/NXP/main/sdks/main_testing_sdk/devices/MCXN947/drivers/fsl_lpuart.c.obj
 .text.LPUART_WriteNonBlocking
                0x00000000       0x58 CMakeFiles/led_blinky_peripheral_cm33_core0.elf.dir/home/brusli/Documents/Projects/NXP/main/sdks/main_testing_sdk/devices/MCXN947/drivers/fsl_lpuart.c.obj
 .text.LPUART_WriteNonBlocking16bit
                0x00000000       0x58 CMakeFiles/led_blinky_peripheral_cm33_core0.elf.dir/home/brusli/Documents/Projects/NXP/main/sdks/main_testing_sdk/devices/MCXN947/drivers/fsl_lpuart.c.obj
 .text.LPUART_ReadNonBlocking
                0x00000000       0xa8 CMakeFiles/led_blinky_peripheral_cm33_core0.elf.dir/home/brusli/Documents/Projects/NXP/main/sdks/main_testing_sdk/devices/MCXN947/drivers/fsl_lpuart.c.obj
 .text.LPUART_ReadNonBlocking16bit
                0x00000000       0x60 CMakeFiles/led_blinky_peripheral_cm33_core0.elf.dir/home/brusli/Documents/Projects/NXP/main/sdks/main_testing_sdk/devices/MCXN947/drivers/fsl_lpuart.c.obj
 .text.LPUART_Deinit
                0x00000000       0x64 CMakeFiles/led_blinky_peripheral_cm33_core0.elf.dir/home/brusli/Documents/Projects/NXP/main/sdks/main_testing_sdk/devices/MCXN947/drivers/fsl_lpuart.c.obj
 .text.LPUART_SetBaudRate
                0x00000000      0x1dc CMakeFiles/led_blinky_peripheral_cm33_core0.elf.dir/home/brusli/Documents/Projects/NXP/main/sdks/main_testing_sdk/devices/MCXN947/drivers/fsl_lpuart.c.obj
 .text.LPUART_Enable9bitMode
                0x00000000       0x7c CMakeFiles/led_blinky_peripheral_cm33_core0.elf.dir/home/brusli/Documents/Projects/NXP/main/sdks/main_testing_sdk/devices/MCXN947/drivers/fsl_lpuart.c.obj
 .text.LPUART_SendAddress
                0x00000000       0x54 CMakeFiles/led_blinky_peripheral_cm33_core0.elf.dir/home/brusli/Documents/Projects/NXP/main/sdks/main_testing_sdk/devices/MCXN947/drivers/fsl_lpuart.c.obj
 .text.LPUART_EnableInterrupts
                0x00000000       0xc8 CMakeFiles/led_blinky_peripheral_cm33_core0.elf.dir/home/brusli/Documents/Projects/NXP/main/sdks/main_testing_sdk/devices/MCXN947/drivers/fsl_lpuart.c.obj
 .text.LPUART_DisableInterrupts
                0x00000000       0xd4 CMakeFiles/led_blinky_peripheral_cm33_core0.elf.dir/home/brusli/Documents/Projects/NXP/main/sdks/main_testing_sdk/devices/MCXN947/drivers/fsl_lpuart.c.obj
 .text.LPUART_GetEnabledInterrupts
                0x00000000       0x7c CMakeFiles/led_blinky_peripheral_cm33_core0.elf.dir/home/brusli/Documents/Projects/NXP/main/sdks/main_testing_sdk/devices/MCXN947/drivers/fsl_lpuart.c.obj
 .text.LPUART_WriteBlocking16bit
                0x00000000       0x78 CMakeFiles/led_blinky_peripheral_cm33_core0.elf.dir/home/brusli/Documents/Projects/NXP/main/sdks/main_testing_sdk/devices/MCXN947/drivers/fsl_lpuart.c.obj
 .text.LPUART_ReadBlocking16bit
                0x00000000      0x128 CMakeFiles/led_blinky_peripheral_cm33_core0.elf.dir/home/brusli/Documents/Projects/NXP/main/sdks/main_testing_sdk/devices/MCXN947/drivers/fsl_lpuart.c.obj
 .text.LPUART_TransferCreateHandle
                0x00000000       0xd4 CMakeFiles/led_blinky_peripheral_cm33_core0.elf.dir/home/brusli/Documents/Projects/NXP/main/sdks/main_testing_sdk/devices/MCXN947/drivers/fsl_lpuart.c.obj
 .text.LPUART_TransferStartRingBuffer
                0x00000000       0x98 CMakeFiles/led_blinky_peripheral_cm33_core0.elf.dir/home/brusli/Documents/Projects/NXP/main/sdks/main_testing_sdk/devices/MCXN947/drivers/fsl_lpuart.c.obj
 .text.LPUART_TransferStopRingBuffer
                0x00000000       0x70 CMakeFiles/led_blinky_peripheral_cm33_core0.elf.dir/home/brusli/Documents/Projects/NXP/main/sdks/main_testing_sdk/devices/MCXN947/drivers/fsl_lpuart.c.obj
 .text.LPUART_TransferSendNonBlocking
                0x00000000       0xec CMakeFiles/led_blinky_peripheral_cm33_core0.elf.dir/home/brusli/Documents/Projects/NXP/main/sdks/main_testing_sdk/devices/MCXN947/drivers/fsl_lpuart.c.obj
 .text.LPUART_TransferAbortSend
                0x00000000       0x58 CMakeFiles/led_blinky_peripheral_cm33_core0.elf.dir/home/brusli/Documents/Projects/NXP/main/sdks/main_testing_sdk/devices/MCXN947/drivers/fsl_lpuart.c.obj
 .text.LPUART_TransferGetSendCount
                0x00000000       0x84 CMakeFiles/led_blinky_peripheral_cm33_core0.elf.dir/home/brusli/Documents/Projects/NXP/main/sdks/main_testing_sdk/devices/MCXN947/drivers/fsl_lpuart.c.obj
 .text.LPUART_TransferReceiveNonBlocking
                0x00000000      0x25c CMakeFiles/led_blinky_peripheral_cm33_core0.elf.dir/home/brusli/Documents/Projects/NXP/main/sdks/main_testing_sdk/devices/MCXN947/drivers/fsl_lpuart.c.obj
 .text.LPUART_TransferAbortReceive
                0x00000000       0x60 CMakeFiles/led_blinky_peripheral_cm33_core0.elf.dir/home/brusli/Documents/Projects/NXP/main/sdks/main_testing_sdk/devices/MCXN947/drivers/fsl_lpuart.c.obj
 .text.LPUART_TransferGetReceiveCount
                0x00000000       0x78 CMakeFiles/led_blinky_peripheral_cm33_core0.elf.dir/home/brusli/Documents/Projects/NXP/main/sdks/main_testing_sdk/devices/MCXN947/drivers/fsl_lpuart.c.obj
 .text.LPUART_TransferHandleIRQ
                0x00000000      0x4f8 CMakeFiles/led_blinky_peripheral_cm33_core0.elf.dir/home/brusli/Documents/Projects/NXP/main/sdks/main_testing_sdk/devices/MCXN947/drivers/fsl_lpuart.c.obj
 .text.LPUART_TransferHandleErrorIRQ
                0x00000000       0x16 CMakeFiles/led_blinky_peripheral_cm33_core0.elf.dir/home/brusli/Documents/Projects/NXP/main/sdks/main_testing_sdk/devices/MCXN947/drivers/fsl_lpuart.c.obj
 .rodata.__func__.24
                0x00000000       0x25 CMakeFiles/led_blinky_peripheral_cm33_core0.elf.dir/home/brusli/Documents/Projects/NXP/main/sdks/main_testing_sdk/devices/MCXN947/drivers/fsl_lpuart.c.obj
 .rodata.__func__.23
                0x00000000       0x22 CMakeFiles/led_blinky_peripheral_cm33_core0.elf.dir/home/brusli/Documents/Projects/NXP/main/sdks/main_testing_sdk/devices/MCXN947/drivers/fsl_lpuart.c.obj
 .rodata.__func__.22
                0x00000000       0x18 CMakeFiles/led_blinky_peripheral_cm33_core0.elf.dir/home/brusli/Documents/Projects/NXP/main/sdks/main_testing_sdk/devices/MCXN947/drivers/fsl_lpuart.c.obj
 .rodata.__func__.21
                0x00000000       0x1d CMakeFiles/led_blinky_peripheral_cm33_core0.elf.dir/home/brusli/Documents/Projects/NXP/main/sdks/main_testing_sdk/devices/MCXN947/drivers/fsl_lpuart.c.obj
 .rodata.__func__.20
                0x00000000       0x17 CMakeFiles/led_blinky_peripheral_cm33_core0.elf.dir/home/brusli/Documents/Projects/NXP/main/sdks/main_testing_sdk/devices/MCXN947/drivers/fsl_lpuart.c.obj
 .rodata.__func__.19
                0x00000000       0x1c CMakeFiles/led_blinky_peripheral_cm33_core0.elf.dir/home/brusli/Documents/Projects/NXP/main/sdks/main_testing_sdk/devices/MCXN947/drivers/fsl_lpuart.c.obj
 .rodata.__func__.16
                0x00000000       0x13 CMakeFiles/led_blinky_peripheral_cm33_core0.elf.dir/home/brusli/Documents/Projects/NXP/main/sdks/main_testing_sdk/devices/MCXN947/drivers/fsl_lpuart.c.obj
 .rodata.__func__.15
                0x00000000       0x16 CMakeFiles/led_blinky_peripheral_cm33_core0.elf.dir/home/brusli/Documents/Projects/NXP/main/sdks/main_testing_sdk/devices/MCXN947/drivers/fsl_lpuart.c.obj
 .rodata.__func__.14
                0x00000000       0x13 CMakeFiles/led_blinky_peripheral_cm33_core0.elf.dir/home/brusli/Documents/Projects/NXP/main/sdks/main_testing_sdk/devices/MCXN947/drivers/fsl_lpuart.c.obj
 .rodata.__func__.12
                0x00000000       0x1a CMakeFiles/led_blinky_peripheral_cm33_core0.elf.dir/home/brusli/Documents/Projects/NXP/main/sdks/main_testing_sdk/devices/MCXN947/drivers/fsl_lpuart.c.obj
 .rodata.__func__.10
                0x00000000       0x19 CMakeFiles/led_blinky_peripheral_cm33_core0.elf.dir/home/brusli/Documents/Projects/NXP/main/sdks/main_testing_sdk/devices/MCXN947/drivers/fsl_lpuart.c.obj
 .rodata.__func__.9
                0x00000000       0x1c CMakeFiles/led_blinky_peripheral_cm33_core0.elf.dir/home/brusli/Documents/Projects/NXP/main/sdks/main_testing_sdk/devices/MCXN947/drivers/fsl_lpuart.c.obj
 .rodata.__func__.8
                0x00000000       0x1f CMakeFiles/led_blinky_peripheral_cm33_core0.elf.dir/home/brusli/Documents/Projects/NXP/main/sdks/main_testing_sdk/devices/MCXN947/drivers/fsl_lpuart.c.obj
 .rodata.__func__.7
                0x00000000       0x1e CMakeFiles/led_blinky_peripheral_cm33_core0.elf.dir/home/brusli/Documents/Projects/NXP/main/sdks/main_testing_sdk/devices/MCXN947/drivers/fsl_lpuart.c.obj
 .rodata.__func__.6
                0x00000000       0x1f CMakeFiles/led_blinky_peripheral_cm33_core0.elf.dir/home/brusli/Documents/Projects/NXP/main/sdks/main_testing_sdk/devices/MCXN947/drivers/fsl_lpuart.c.obj
 .rodata.__func__.5
                0x00000000       0x19 CMakeFiles/led_blinky_peripheral_cm33_core0.elf.dir/home/brusli/Documents/Projects/NXP/main/sdks/main_testing_sdk/devices/MCXN947/drivers/fsl_lpuart.c.obj
 .rodata.__func__.4
                0x00000000       0x1c CMakeFiles/led_blinky_peripheral_cm33_core0.elf.dir/home/brusli/Documents/Projects/NXP/main/sdks/main_testing_sdk/devices/MCXN947/drivers/fsl_lpuart.c.obj
 .rodata.__func__.3
                0x00000000       0x22 CMakeFiles/led_blinky_peripheral_cm33_core0.elf.dir/home/brusli/Documents/Projects/NXP/main/sdks/main_testing_sdk/devices/MCXN947/drivers/fsl_lpuart.c.obj
 .rodata.__func__.2
                0x00000000       0x1c CMakeFiles/led_blinky_peripheral_cm33_core0.elf.dir/home/brusli/Documents/Projects/NXP/main/sdks/main_testing_sdk/devices/MCXN947/drivers/fsl_lpuart.c.obj
 .rodata.__func__.1
                0x00000000       0x1f CMakeFiles/led_blinky_peripheral_cm33_core0.elf.dir/home/brusli/Documents/Projects/NXP/main/sdks/main_testing_sdk/devices/MCXN947/drivers/fsl_lpuart.c.obj
 .rodata.__func__.0
                0x00000000       0x19 CMakeFiles/led_blinky_peripheral_cm33_core0.elf.dir/home/brusli/Documents/Projects/NXP/main/sdks/main_testing_sdk/devices/MCXN947/drivers/fsl_lpuart.c.obj
 .text          0x00000000        0x0 CMakeFiles/led_blinky_peripheral_cm33_core0.elf.dir/home/brusli/Documents/Projects/NXP/main/sdks/main_testing_sdk/devices/MCXN947/drivers/fsl_spc.c.obj
 .data          0x00000000        0x0 CMakeFiles/led_blinky_peripheral_cm33_core0.elf.dir/home/brusli/Documents/Projects/NXP/main/sdks/main_testing_sdk/devices/MCXN947/drivers/fsl_spc.c.obj
 .bss           0x00000000        0x0 CMakeFiles/led_blinky_peripheral_cm33_core0.elf.dir/home/brusli/Documents/Projects/NXP/main/sdks/main_testing_sdk/devices/MCXN947/drivers/fsl_spc.c.obj
 .text.SPC_EnableActiveModeCMPBandgapBuffer
                0x00000000       0x40 CMakeFiles/led_blinky_peripheral_cm33_core0.elf.dir/home/brusli/Documents/Projects/NXP/main/sdks/main_testing_sdk/devices/MCXN947/drivers/fsl_spc.c.obj
 .text.SPC_CheckActiveModeVddCoreGlitchDetectEnabled
                0x00000000       0x28 CMakeFiles/led_blinky_peripheral_cm33_core0.elf.dir/home/brusli/Documents/Projects/NXP/main/sdks/main_testing_sdk/devices/MCXN947/drivers/fsl_spc.c.obj
 .text.SPC_GetLowPowerModeBandgapMode
                0x00000000       0x22 CMakeFiles/led_blinky_peripheral_cm33_core0.elf.dir/home/brusli/Documents/Projects/NXP/main/sdks/main_testing_sdk/devices/MCXN947/drivers/fsl_spc.c.obj
 .text.SPC_GetLowPowerModeVoltageDetectStatus
                0x00000000       0x22 CMakeFiles/led_blinky_peripheral_cm33_core0.elf.dir/home/brusli/Documents/Projects/NXP/main/sdks/main_testing_sdk/devices/MCXN947/drivers/fsl_spc.c.obj
 .text.SPC_EnableLowPowerModeLowPowerIREF
                0x00000000       0x40 CMakeFiles/led_blinky_peripheral_cm33_core0.elf.dir/home/brusli/Documents/Projects/NXP/main/sdks/main_testing_sdk/devices/MCXN947/drivers/fsl_spc.c.obj
 .text.SPC_EnableLowPowerModeCMPBandgapBuffer
                0x00000000       0x40 CMakeFiles/led_blinky_peripheral_cm33_core0.elf.dir/home/brusli/Documents/Projects/NXP/main/sdks/main_testing_sdk/devices/MCXN947/drivers/fsl_spc.c.obj
 .text.SPC_EnableLowPowerModeCoreVDDInternalVoltageScaling
                0x00000000       0x40 CMakeFiles/led_blinky_peripheral_cm33_core0.elf.dir/home/brusli/Documents/Projects/NXP/main/sdks/main_testing_sdk/devices/MCXN947/drivers/fsl_spc.c.obj
 .text.SPC_CheckLowPowerModeVddCoreGlitchDetectEnabled
                0x00000000       0x28 CMakeFiles/led_blinky_peripheral_cm33_core0.elf.dir/home/brusli/Documents/Projects/NXP/main/sdks/main_testing_sdk/devices/MCXN947/drivers/fsl_spc.c.obj
 .text.SPC_GetLowPowerCoreLDOVDDVoltageLevel
                0x00000000       0x22 CMakeFiles/led_blinky_peripheral_cm33_core0.elf.dir/home/brusli/Documents/Projects/NXP/main/sdks/main_testing_sdk/devices/MCXN947/drivers/fsl_spc.c.obj
 .text.SPC_SetLowPowerModeDCDCRegulatorVoltageLevel
                0x00000000       0x40 CMakeFiles/led_blinky_peripheral_cm33_core0.elf.dir/home/brusli/Documents/Projects/NXP/main/sdks/main_testing_sdk/devices/MCXN947/drivers/fsl_spc.c.obj
 .text.SPC_GetPowerDomainLowPowerMode
                0x00000000       0x48 CMakeFiles/led_blinky_peripheral_cm33_core0.elf.dir/home/brusli/Documents/Projects/NXP/main/sdks/main_testing_sdk/devices/MCXN947/drivers/fsl_spc.c.obj
 .text.SPC_GetPeriphIOIsolationStatus
                0x00000000       0x26 CMakeFiles/led_blinky_peripheral_cm33_core0.elf.dir/home/brusli/Documents/Projects/NXP/main/sdks/main_testing_sdk/devices/MCXN947/drivers/fsl_spc.c.obj
 .text.SPC_SetLowPowerRequestConfig
                0x00000000       0x78 CMakeFiles/led_blinky_peripheral_cm33_core0.elf.dir/home/brusli/Documents/Projects/NXP/main/sdks/main_testing_sdk/devices/MCXN947/drivers/fsl_spc.c.obj
 .text.SPC_ConfigVddCoreGlitchDetector
                0x00000000       0x74 CMakeFiles/led_blinky_peripheral_cm33_core0.elf.dir/home/brusli/Documents/Projects/NXP/main/sdks/main_testing_sdk/devices/MCXN947/drivers/fsl_spc.c.obj
 .text.SPC_SetActiveModeBandgapModeConfig
                0x00000000       0xa8 CMakeFiles/led_blinky_peripheral_cm33_core0.elf.dir/home/brusli/Documents/Projects/NXP/main/sdks/main_testing_sdk/devices/MCXN947/drivers/fsl_spc.c.obj
 .text.SPC_SetLowPowerModeBandgapmodeConfig
                0x00000000       0xa8 CMakeFiles/led_blinky_peripheral_cm33_core0.elf.dir/home/brusli/Documents/Projects/NXP/main/sdks/main_testing_sdk/devices/MCXN947/drivers/fsl_spc.c.obj
 .text.SPC_SetCoreVoltageDetectConfig
                0x00000000       0x90 CMakeFiles/led_blinky_peripheral_cm33_core0.elf.dir/home/brusli/Documents/Projects/NXP/main/sdks/main_testing_sdk/devices/MCXN947/drivers/fsl_spc.c.obj
 .text.SPC_EnableActiveModeCoreHighVoltageDetect
                0x00000000       0x46 CMakeFiles/led_blinky_peripheral_cm33_core0.elf.dir/home/brusli/Documents/Projects/NXP/main/sdks/main_testing_sdk/devices/MCXN947/drivers/fsl_spc.c.obj
 .text.SPC_EnableLowPowerModeCoreHighVoltageDetect
                0x00000000       0x46 CMakeFiles/led_blinky_peripheral_cm33_core0.elf.dir/home/brusli/Documents/Projects/NXP/main/sdks/main_testing_sdk/devices/MCXN947/drivers/fsl_spc.c.obj
 .text.SPC_EnableActiveModeCoreLowVoltageDetect
                0x00000000       0x46 CMakeFiles/led_blinky_peripheral_cm33_core0.elf.dir/home/brusli/Documents/Projects/NXP/main/sdks/main_testing_sdk/devices/MCXN947/drivers/fsl_spc.c.obj
 .text.SPC_EnableLowPowerModeCoreLowVoltageDetect
                0x00000000       0x46 CMakeFiles/led_blinky_peripheral_cm33_core0.elf.dir/home/brusli/Documents/Projects/NXP/main/sdks/main_testing_sdk/devices/MCXN947/drivers/fsl_spc.c.obj
 .text.SPC_SetSystemVDDLowVoltageLevel
                0x00000000       0x18 CMakeFiles/led_blinky_peripheral_cm33_core0.elf.dir/home/brusli/Documents/Projects/NXP/main/sdks/main_testing_sdk/devices/MCXN947/drivers/fsl_spc.c.obj
 .text.SPC_SetSystemVoltageDetectConfig
                0x00000000       0x90 CMakeFiles/led_blinky_peripheral_cm33_core0.elf.dir/home/brusli/Documents/Projects/NXP/main/sdks/main_testing_sdk/devices/MCXN947/drivers/fsl_spc.c.obj
 .text.SPC_EnableActiveModeSystemHighVoltageDetect
                0x00000000       0x46 CMakeFiles/led_blinky_peripheral_cm33_core0.elf.dir/home/brusli/Documents/Projects/NXP/main/sdks/main_testing_sdk/devices/MCXN947/drivers/fsl_spc.c.obj
 .text.SPC_EnableActiveModeSystemLowVoltageDetect
                0x00000000       0x46 CMakeFiles/led_blinky_peripheral_cm33_core0.elf.dir/home/brusli/Documents/Projects/NXP/main/sdks/main_testing_sdk/devices/MCXN947/drivers/fsl_spc.c.obj
 .text.SPC_EnableLowPowerModeSystemHighVoltageDetect
                0x00000000       0x46 CMakeFiles/led_blinky_peripheral_cm33_core0.elf.dir/home/brusli/Documents/Projects/NXP/main/sdks/main_testing_sdk/devices/MCXN947/drivers/fsl_spc.c.obj
 .text.SPC_EnableLowPowerModeSystemLowVoltageDetect
                0x00000000       0x46 CMakeFiles/led_blinky_peripheral_cm33_core0.elf.dir/home/brusli/Documents/Projects/NXP/main/sdks/main_testing_sdk/devices/MCXN947/drivers/fsl_spc.c.obj
 .text.SPC_SetIOVDDLowVoltageLevel
                0x00000000       0x4a CMakeFiles/led_blinky_peripheral_cm33_core0.elf.dir/home/brusli/Documents/Projects/NXP/main/sdks/main_testing_sdk/devices/MCXN947/drivers/fsl_spc.c.obj
 .text.SPC_SetIOVoltageDetectConfig
                0x00000000       0xac CMakeFiles/led_blinky_peripheral_cm33_core0.elf.dir/home/brusli/Documents/Projects/NXP/main/sdks/main_testing_sdk/devices/MCXN947/drivers/fsl_spc.c.obj
 .text.SPC_EnableActiveModeIOHighVoltageDetect
                0x00000000       0x46 CMakeFiles/led_blinky_peripheral_cm33_core0.elf.dir/home/brusli/Documents/Projects/NXP/main/sdks/main_testing_sdk/devices/MCXN947/drivers/fsl_spc.c.obj
 .text.SPC_EnableActiveModeIOLowVoltageDetect
                0x00000000       0x46 CMakeFiles/led_blinky_peripheral_cm33_core0.elf.dir/home/brusli/Documents/Projects/NXP/main/sdks/main_testing_sdk/devices/MCXN947/drivers/fsl_spc.c.obj
 .text.SPC_EnableLowPowerModeIOHighVoltageDetect
                0x00000000       0x46 CMakeFiles/led_blinky_peripheral_cm33_core0.elf.dir/home/brusli/Documents/Projects/NXP/main/sdks/main_testing_sdk/devices/MCXN947/drivers/fsl_spc.c.obj
 .text.SPC_EnableLowPowerModeIOLowVoltageDetect
                0x00000000       0x46 CMakeFiles/led_blinky_peripheral_cm33_core0.elf.dir/home/brusli/Documents/Projects/NXP/main/sdks/main_testing_sdk/devices/MCXN947/drivers/fsl_spc.c.obj
 .text.SPC_SetExternalVoltageDomainsConfig
                0x00000000       0x36 CMakeFiles/led_blinky_peripheral_cm33_core0.elf.dir/home/brusli/Documents/Projects/NXP/main/sdks/main_testing_sdk/devices/MCXN947/drivers/fsl_spc.c.obj
 .text.SPC_SetLowPowerModeCoreLDORegulatorConfig
                0x00000000       0x8e CMakeFiles/led_blinky_peripheral_cm33_core0.elf.dir/home/brusli/Documents/Projects/NXP/main/sdks/main_testing_sdk/devices/MCXN947/drivers/fsl_spc.c.obj
 .text.SPC_SetLowPowerModeCoreLDORegulatorVoltageLevel
                0x00000000       0x54 CMakeFiles/led_blinky_peripheral_cm33_core0.elf.dir/home/brusli/Documents/Projects/NXP/main/sdks/main_testing_sdk/devices/MCXN947/drivers/fsl_spc.c.obj
 .text.SPC_SetLowPowerModeCoreLDORegulatorDriveStrength
                0x00000000       0x58 CMakeFiles/led_blinky_peripheral_cm33_core0.elf.dir/home/brusli/Documents/Projects/NXP/main/sdks/main_testing_sdk/devices/MCXN947/drivers/fsl_spc.c.obj
 .text.SPC_SetActiveModeSystemLDORegulatorConfig
                0x00000000       0xb0 CMakeFiles/led_blinky_peripheral_cm33_core0.elf.dir/home/brusli/Documents/Projects/NXP/main/sdks/main_testing_sdk/devices/MCXN947/drivers/fsl_spc.c.obj
 .text.SPC_SetActiveModeSystemLDORegulatorVoltageLevel
                0x00000000       0x4c CMakeFiles/led_blinky_peripheral_cm33_core0.elf.dir/home/brusli/Documents/Projects/NXP/main/sdks/main_testing_sdk/devices/MCXN947/drivers/fsl_spc.c.obj
 .text.SPC_SetActiveModeSystemLDORegulatorDriveStrength
                0x00000000       0x60 CMakeFiles/led_blinky_peripheral_cm33_core0.elf.dir/home/brusli/Documents/Projects/NXP/main/sdks/main_testing_sdk/devices/MCXN947/drivers/fsl_spc.c.obj
 .text.SPC_SetLowPowerModeSystemLDORegulatorConfig
                0x00000000       0x34 CMakeFiles/led_blinky_peripheral_cm33_core0.elf.dir/home/brusli/Documents/Projects/NXP/main/sdks/main_testing_sdk/devices/MCXN947/drivers/fsl_spc.c.obj
 .text.SPC_SetLowPowerModeSystemLDORegulatorDriveStrength
                0x00000000       0x5a CMakeFiles/led_blinky_peripheral_cm33_core0.elf.dir/home/brusli/Documents/Projects/NXP/main/sdks/main_testing_sdk/devices/MCXN947/drivers/fsl_spc.c.obj
 .text.SPC_SetLowPowerModeDCDCRegulatorConfig
                0x00000000       0x6e CMakeFiles/led_blinky_peripheral_cm33_core0.elf.dir/home/brusli/Documents/Projects/NXP/main/sdks/main_testing_sdk/devices/MCXN947/drivers/fsl_spc.c.obj
 .text.SPC_SetLowPowerModeDCDCRegulatorDriveStrength
                0x00000000       0x48 CMakeFiles/led_blinky_peripheral_cm33_core0.elf.dir/home/brusli/Documents/Projects/NXP/main/sdks/main_testing_sdk/devices/MCXN947/drivers/fsl_spc.c.obj
 .text.SPC_SetDCDCBurstConfig
                0x00000000       0xe4 CMakeFiles/led_blinky_peripheral_cm33_core0.elf.dir/home/brusli/Documents/Projects/NXP/main/sdks/main_testing_sdk/devices/MCXN947/drivers/fsl_spc.c.obj
 .text.SPC_SetDCDCRefreshCount
                0x00000000       0x38 CMakeFiles/led_blinky_peripheral_cm33_core0.elf.dir/home/brusli/Documents/Projects/NXP/main/sdks/main_testing_sdk/devices/MCXN947/drivers/fsl_spc.c.obj
 .text.SPC_SetActiveModeRegulatorsConfig
                0x00000000      0x124 CMakeFiles/led_blinky_peripheral_cm33_core0.elf.dir/home/brusli/Documents/Projects/NXP/main/sdks/main_testing_sdk/devices/MCXN947/drivers/fsl_spc.c.obj
 .text.SPC_SetLowPowerModeRegulatorsConfig
                0x00000000      0x130 CMakeFiles/led_blinky_peripheral_cm33_core0.elf.dir/home/brusli/Documents/Projects/NXP/main/sdks/main_testing_sdk/devices/MCXN947/drivers/fsl_spc.c.obj
 .rodata.__func__.12
                0x00000000       0x1f CMakeFiles/led_blinky_peripheral_cm33_core0.elf.dir/home/brusli/Documents/Projects/NXP/main/sdks/main_testing_sdk/devices/MCXN947/drivers/fsl_spc.c.obj
 .rodata.__func__.11
                0x00000000       0x1d CMakeFiles/led_blinky_peripheral_cm33_core0.elf.dir/home/brusli/Documents/Projects/NXP/main/sdks/main_testing_sdk/devices/MCXN947/drivers/fsl_spc.c.obj
 .rodata.__func__.10
                0x00000000       0x20 CMakeFiles/led_blinky_peripheral_cm33_core0.elf.dir/home/brusli/Documents/Projects/NXP/main/sdks/main_testing_sdk/devices/MCXN947/drivers/fsl_spc.c.obj
 .rodata.__func__.8
                0x00000000       0x1f CMakeFiles/led_blinky_peripheral_cm33_core0.elf.dir/home/brusli/Documents/Projects/NXP/main/sdks/main_testing_sdk/devices/MCXN947/drivers/fsl_spc.c.obj
 .rodata.__func__.7
                0x00000000       0x21 CMakeFiles/led_blinky_peripheral_cm33_core0.elf.dir/home/brusli/Documents/Projects/NXP/main/sdks/main_testing_sdk/devices/MCXN947/drivers/fsl_spc.c.obj
 .rodata.__func__.6
                0x00000000       0x1d CMakeFiles/led_blinky_peripheral_cm33_core0.elf.dir/home/brusli/Documents/Projects/NXP/main/sdks/main_testing_sdk/devices/MCXN947/drivers/fsl_spc.c.obj
 .rodata.__func__.4
                0x00000000       0x2a CMakeFiles/led_blinky_peripheral_cm33_core0.elf.dir/home/brusli/Documents/Projects/NXP/main/sdks/main_testing_sdk/devices/MCXN947/drivers/fsl_spc.c.obj
 .rodata.__func__.2
                0x00000000       0x17 CMakeFiles/led_blinky_peripheral_cm33_core0.elf.dir/home/brusli/Documents/Projects/NXP/main/sdks/main_testing_sdk/devices/MCXN947/drivers/fsl_spc.c.obj
 .rodata.__func__.1
                0x00000000       0x22 CMakeFiles/led_blinky_peripheral_cm33_core0.elf.dir/home/brusli/Documents/Projects/NXP/main/sdks/main_testing_sdk/devices/MCXN947/drivers/fsl_spc.c.obj
 .rodata.__func__.0
                0x00000000       0x24 CMakeFiles/led_blinky_peripheral_cm33_core0.elf.dir/home/brusli/Documents/Projects/NXP/main/sdks/main_testing_sdk/devices/MCXN947/drivers/fsl_spc.c.obj
 .text          0x00000000        0x0 CMakeFiles/led_blinky_peripheral_cm33_core0.elf.dir/home/brusli/Documents/Projects/NXP/main/sdks/main_testing_sdk/devices/MCXN947/drivers/fsl_reset.c.obj
 .data          0x00000000        0x0 CMakeFiles/led_blinky_peripheral_cm33_core0.elf.dir/home/brusli/Documents/Projects/NXP/main/sdks/main_testing_sdk/devices/MCXN947/drivers/fsl_reset.c.obj
 .bss           0x00000000        0x0 CMakeFiles/led_blinky_peripheral_cm33_core0.elf.dir/home/brusli/Documents/Projects/NXP/main/sdks/main_testing_sdk/devices/MCXN947/drivers/fsl_reset.c.obj
 .text          0x00000000        0x0 CMakeFiles/led_blinky_peripheral_cm33_core0.elf.dir/home/brusli/Documents/Projects/NXP/main/sdks/main_testing_sdk/devices/MCXN947/drivers/fsl_vref.c.obj
 .data          0x00000000        0x0 CMakeFiles/led_blinky_peripheral_cm33_core0.elf.dir/home/brusli/Documents/Projects/NXP/main/sdks/main_testing_sdk/devices/MCXN947/drivers/fsl_vref.c.obj
 .bss           0x00000000        0x0 CMakeFiles/led_blinky_peripheral_cm33_core0.elf.dir/home/brusli/Documents/Projects/NXP/main/sdks/main_testing_sdk/devices/MCXN947/drivers/fsl_vref.c.obj
 .text.CLOCK_DisableClock
                0x00000000       0xb8 CMakeFiles/led_blinky_peripheral_cm33_core0.elf.dir/home/brusli/Documents/Projects/NXP/main/sdks/main_testing_sdk/devices/MCXN947/drivers/fsl_vref.c.obj
 .rodata.s_vrefBases
                0x00000000        0x4 CMakeFiles/led_blinky_peripheral_cm33_core0.elf.dir/home/brusli/Documents/Projects/NXP/main/sdks/main_testing_sdk/devices/MCXN947/drivers/fsl_vref.c.obj
 .rodata.s_vrefClocks
                0x00000000        0x2 CMakeFiles/led_blinky_peripheral_cm33_core0.elf.dir/home/brusli/Documents/Projects/NXP/main/sdks/main_testing_sdk/devices/MCXN947/drivers/fsl_vref.c.obj
 .text.VREF_Deinit
                0x00000000       0x20 CMakeFiles/led_blinky_peripheral_cm33_core0.elf.dir/home/brusli/Documents/Projects/NXP/main/sdks/main_testing_sdk/devices/MCXN947/drivers/fsl_vref.c.obj
 .text.VREF_GetDefaultConfig
                0x00000000       0x5c CMakeFiles/led_blinky_peripheral_cm33_core0.elf.dir/home/brusli/Documents/Projects/NXP/main/sdks/main_testing_sdk/devices/MCXN947/drivers/fsl_vref.c.obj
 .text.VREF_SetVrefTrimVal
                0x00000000       0x5c CMakeFiles/led_blinky_peripheral_cm33_core0.elf.dir/home/brusli/Documents/Projects/NXP/main/sdks/main_testing_sdk/devices/MCXN947/drivers/fsl_vref.c.obj
 .text.VREF_SetTrim21Val
                0x00000000       0x5c CMakeFiles/led_blinky_peripheral_cm33_core0.elf.dir/home/brusli/Documents/Projects/NXP/main/sdks/main_testing_sdk/devices/MCXN947/drivers/fsl_vref.c.obj
 .text.VREF_GetVrefTrimVal
                0x00000000       0x24 CMakeFiles/led_blinky_peripheral_cm33_core0.elf.dir/home/brusli/Documents/Projects/NXP/main/sdks/main_testing_sdk/devices/MCXN947/drivers/fsl_vref.c.obj
 .text.VREF_GetTrim21Val
                0x00000000       0x22 CMakeFiles/led_blinky_peripheral_cm33_core0.elf.dir/home/brusli/Documents/Projects/NXP/main/sdks/main_testing_sdk/devices/MCXN947/drivers/fsl_vref.c.obj
 .rodata.__func__.0
                0x00000000       0x16 CMakeFiles/led_blinky_peripheral_cm33_core0.elf.dir/home/brusli/Documents/Projects/NXP/main/sdks/main_testing_sdk/devices/MCXN947/drivers/fsl_vref.c.obj
 .text          0x00000000        0x0 CMakeFiles/led_blinky_peripheral_cm33_core0.elf.dir/home/brusli/Documents/Projects/NXP/main/sdks/main_testing_sdk/devices/MCXN947/utilities/fsl_syscall_stub.c.obj
 .data          0x00000000        0x0 CMakeFiles/led_blinky_peripheral_cm33_core0.elf.dir/home/brusli/Documents/Projects/NXP/main/sdks/main_testing_sdk/devices/MCXN947/utilities/fsl_syscall_stub.c.obj
 .bss           0x00000000        0x0 CMakeFiles/led_blinky_peripheral_cm33_core0.elf.dir/home/brusli/Documents/Projects/NXP/main/sdks/main_testing_sdk/devices/MCXN947/utilities/fsl_syscall_stub.c.obj
 .text._write   0x00000000       0x22 CMakeFiles/led_blinky_peripheral_cm33_core0.elf.dir/home/brusli/Documents/Projects/NXP/main/sdks/main_testing_sdk/devices/MCXN947/utilities/fsl_syscall_stub.c.obj
 .text._read    0x00000000       0x22 CMakeFiles/led_blinky_peripheral_cm33_core0.elf.dir/home/brusli/Documents/Projects/NXP/main/sdks/main_testing_sdk/devices/MCXN947/utilities/fsl_syscall_stub.c.obj
 .text._close   0x00000000       0x1e CMakeFiles/led_blinky_peripheral_cm33_core0.elf.dir/home/brusli/Documents/Projects/NXP/main/sdks/main_testing_sdk/devices/MCXN947/utilities/fsl_syscall_stub.c.obj
 .text._lseek   0x00000000       0x22 CMakeFiles/led_blinky_peripheral_cm33_core0.elf.dir/home/brusli/Documents/Projects/NXP/main/sdks/main_testing_sdk/devices/MCXN947/utilities/fsl_syscall_stub.c.obj
 .text._fstat   0x00000000       0x20 CMakeFiles/led_blinky_peripheral_cm33_core0.elf.dir/home/brusli/Documents/Projects/NXP/main/sdks/main_testing_sdk/devices/MCXN947/utilities/fsl_syscall_stub.c.obj
 .text._getpid  0x00000000       0x16 CMakeFiles/led_blinky_peripheral_cm33_core0.elf.dir/home/brusli/Documents/Projects/NXP/main/sdks/main_testing_sdk/devices/MCXN947/utilities/fsl_syscall_stub.c.obj
 .text._isatty  0x00000000       0x1c CMakeFiles/led_blinky_peripheral_cm33_core0.elf.dir/home/brusli/Documents/Projects/NXP/main/sdks/main_testing_sdk/devices/MCXN947/utilities/fsl_syscall_stub.c.obj
 .text._kill    0x00000000       0x20 CMakeFiles/led_blinky_peripheral_cm33_core0.elf.dir/home/brusli/Documents/Projects/NXP/main/sdks/main_testing_sdk/devices/MCXN947/utilities/fsl_syscall_stub.c.obj
 .text._link    0x00000000       0x20 CMakeFiles/led_blinky_peripheral_cm33_core0.elf.dir/home/brusli/Documents/Projects/NXP/main/sdks/main_testing_sdk/devices/MCXN947/utilities/fsl_syscall_stub.c.obj
 .text._unlink  0x00000000       0x1e CMakeFiles/led_blinky_peripheral_cm33_core0.elf.dir/home/brusli/Documents/Projects/NXP/main/sdks/main_testing_sdk/devices/MCXN947/utilities/fsl_syscall_stub.c.obj
 .text._open    0x00000000       0x20 CMakeFiles/led_blinky_peripheral_cm33_core0.elf.dir/home/brusli/Documents/Projects/NXP/main/sdks/main_testing_sdk/devices/MCXN947/utilities/fsl_syscall_stub.c.obj
 .text._stat    0x00000000       0x20 CMakeFiles/led_blinky_peripheral_cm33_core0.elf.dir/home/brusli/Documents/Projects/NXP/main/sdks/main_testing_sdk/devices/MCXN947/utilities/fsl_syscall_stub.c.obj
 .debug_info    0x00000000      0x4eb CMakeFiles/led_blinky_peripheral_cm33_core0.elf.dir/home/brusli/Documents/Projects/NXP/main/sdks/main_testing_sdk/devices/MCXN947/utilities/fsl_syscall_stub.c.obj
 .debug_abbrev  0x00000000      0x10d CMakeFiles/led_blinky_peripheral_cm33_core0.elf.dir/home/brusli/Documents/Projects/NXP/main/sdks/main_testing_sdk/devices/MCXN947/utilities/fsl_syscall_stub.c.obj
 .debug_aranges
                0x00000000       0x78 CMakeFiles/led_blinky_peripheral_cm33_core0.elf.dir/home/brusli/Documents/Projects/NXP/main/sdks/main_testing_sdk/devices/MCXN947/utilities/fsl_syscall_stub.c.obj
 .debug_rnglists
                0x00000000       0x55 CMakeFiles/led_blinky_peripheral_cm33_core0.elf.dir/home/brusli/Documents/Projects/NXP/main/sdks/main_testing_sdk/devices/MCXN947/utilities/fsl_syscall_stub.c.obj
 .debug_line    0x00000000      0x354 CMakeFiles/led_blinky_peripheral_cm33_core0.elf.dir/home/brusli/Documents/Projects/NXP/main/sdks/main_testing_sdk/devices/MCXN947/utilities/fsl_syscall_stub.c.obj
 .debug_str     0x00000000      0x40a CMakeFiles/led_blinky_peripheral_cm33_core0.elf.dir/home/brusli/Documents/Projects/NXP/main/sdks/main_testing_sdk/devices/MCXN947/utilities/fsl_syscall_stub.c.obj
 .comment       0x00000000       0x46 CMakeFiles/led_blinky_peripheral_cm33_core0.elf.dir/home/brusli/Documents/Projects/NXP/main/sdks/main_testing_sdk/devices/MCXN947/utilities/fsl_syscall_stub.c.obj
 .debug_frame   0x00000000      0x1b8 CMakeFiles/led_blinky_peripheral_cm33_core0.elf.dir/home/brusli/Documents/Projects/NXP/main/sdks/main_testing_sdk/devices/MCXN947/utilities/fsl_syscall_stub.c.obj
 .ARM.attributes
                0x00000000       0x3a CMakeFiles/led_blinky_peripheral_cm33_core0.elf.dir/home/brusli/Documents/Projects/NXP/main/sdks/main_testing_sdk/devices/MCXN947/utilities/fsl_syscall_stub.c.obj
 .text          0x00000000        0x0 CMakeFiles/led_blinky_peripheral_cm33_core0.elf.dir/home/brusli/Documents/Projects/NXP/main/sdks/main_testing_sdk/devices/MCXN947/utilities/fsl_sbrk.c.obj
 .data          0x00000000        0x0 CMakeFiles/led_blinky_peripheral_cm33_core0.elf.dir/home/brusli/Documents/Projects/NXP/main/sdks/main_testing_sdk/devices/MCXN947/utilities/fsl_sbrk.c.obj
 .bss           0x00000000        0x0 CMakeFiles/led_blinky_peripheral_cm33_core0.elf.dir/home/brusli/Documents/Projects/NXP/main/sdks/main_testing_sdk/devices/MCXN947/utilities/fsl_sbrk.c.obj
 .data          0x00000000        0x0 CMakeFiles/led_blinky_peripheral_cm33_core0.elf.dir/home/brusli/Documents/Projects/NXP/main/sdks/main_testing_sdk/devices/MCXN947/utilities/fsl_memcpy.S.obj
 .bss           0x00000000        0x0 CMakeFiles/led_blinky_peripheral_cm33_core0.elf.dir/home/brusli/Documents/Projects/NXP/main/sdks/main_testing_sdk/devices/MCXN947/utilities/fsl_memcpy.S.obj
 .text          0x00000000        0x0 CMakeFiles/led_blinky_peripheral_cm33_core0.elf.dir/home/brusli/Documents/Projects/NXP/main/sdks/main_testing_sdk/devices/MCXN947/utilities/debug_console_lite/fsl_assert.c.obj
 .data          0x00000000        0x0 CMakeFiles/led_blinky_peripheral_cm33_core0.elf.dir/home/brusli/Documents/Projects/NXP/main/sdks/main_testing_sdk/devices/MCXN947/utilities/debug_console_lite/fsl_assert.c.obj
 .bss           0x00000000        0x0 CMakeFiles/led_blinky_peripheral_cm33_core0.elf.dir/home/brusli/Documents/Projects/NXP/main/sdks/main_testing_sdk/devices/MCXN947/utilities/debug_console_lite/fsl_assert.c.obj
 .text          0x00000000        0x0 CMakeFiles/led_blinky_peripheral_cm33_core0.elf.dir/home/brusli/Documents/Projects/NXP/main/sdks/main_testing_sdk/devices/MCXN947/utilities/debug_console_lite/fsl_debug_console.c.obj
 .data          0x00000000        0x0 CMakeFiles/led_blinky_peripheral_cm33_core0.elf.dir/home/brusli/Documents/Projects/NXP/main/sdks/main_testing_sdk/devices/MCXN947/utilities/debug_console_lite/fsl_debug_console.c.obj
 .bss           0x00000000        0x0 CMakeFiles/led_blinky_peripheral_cm33_core0.elf.dir/home/brusli/Documents/Projects/NXP/main/sdks/main_testing_sdk/devices/MCXN947/utilities/debug_console_lite/fsl_debug_console.c.obj
 .text.DbgConsole_Deinit
                0x00000000       0x28 CMakeFiles/led_blinky_peripheral_cm33_core0.elf.dir/home/brusli/Documents/Projects/NXP/main/sdks/main_testing_sdk/devices/MCXN947/utilities/debug_console_lite/fsl_debug_console.c.obj
 .text.DbgConsole_EnterLowpower
                0x00000000       0x2c CMakeFiles/led_blinky_peripheral_cm33_core0.elf.dir/home/brusli/Documents/Projects/NXP/main/sdks/main_testing_sdk/devices/MCXN947/utilities/debug_console_lite/fsl_debug_console.c.obj
 .text.DbgConsole_ExitLowpower
                0x00000000       0x2c CMakeFiles/led_blinky_peripheral_cm33_core0.elf.dir/home/brusli/Documents/Projects/NXP/main/sdks/main_testing_sdk/devices/MCXN947/utilities/debug_console_lite/fsl_debug_console.c.obj
 .text.DbgConsole_Scanf
                0x00000000       0xb0 CMakeFiles/led_blinky_peripheral_cm33_core0.elf.dir/home/brusli/Documents/Projects/NXP/main/sdks/main_testing_sdk/devices/MCXN947/utilities/debug_console_lite/fsl_debug_console.c.obj
 .text.DbgConsole_Getchar
                0x00000000       0x3c CMakeFiles/led_blinky_peripheral_cm33_core0.elf.dir/home/brusli/Documents/Projects/NXP/main/sdks/main_testing_sdk/devices/MCXN947/utilities/debug_console_lite/fsl_debug_console.c.obj
 .text          0x00000000        0x0 CMakeFiles/led_blinky_peripheral_cm33_core0.elf.dir/home/brusli/Documents/Projects/NXP/main/sdks/main_testing_sdk/devices/MCXN947/utilities/str/fsl_str.c.obj
 .data          0x00000000        0x0 CMakeFiles/led_blinky_peripheral_cm33_core0.elf.dir/home/brusli/Documents/Projects/NXP/main/sdks/main_testing_sdk/devices/MCXN947/utilities/str/fsl_str.c.obj
 .bss           0x00000000        0x0 CMakeFiles/led_blinky_peripheral_cm33_core0.elf.dir/home/brusli/Documents/Projects/NXP/main/sdks/main_testing_sdk/devices/MCXN947/utilities/str/fsl_str.c.obj
 .text.PrintGetWidth
                0x00000000       0x6a CMakeFiles/led_blinky_peripheral_cm33_core0.elf.dir/home/brusli/Documents/Projects/NXP/main/sdks/main_testing_sdk/devices/MCXN947/utilities/str/fsl_str.c.obj
 .text.PrintGetPrecision
                0x00000000       0x8c CMakeFiles/led_blinky_peripheral_cm33_core0.elf.dir/home/brusli/Documents/Projects/NXP/main/sdks/main_testing_sdk/devices/MCXN947/utilities/str/fsl_str.c.obj
 .text.PrintIsobpu
                0x00000000       0x38 CMakeFiles/led_blinky_peripheral_cm33_core0.elf.dir/home/brusli/Documents/Projects/NXP/main/sdks/main_testing_sdk/devices/MCXN947/utilities/str/fsl_str.c.obj
 .text.PrintIsdi
                0x00000000       0x2c CMakeFiles/led_blinky_peripheral_cm33_core0.elf.dir/home/brusli/Documents/Projects/NXP/main/sdks/main_testing_sdk/devices/MCXN947/utilities/str/fsl_str.c.obj
 .text.PrintOutputdifFobpu
                0x00000000       0x44 CMakeFiles/led_blinky_peripheral_cm33_core0.elf.dir/home/brusli/Documents/Projects/NXP/main/sdks/main_testing_sdk/devices/MCXN947/utilities/str/fsl_str.c.obj
 .text.PrintOutputxX
                0x00000000       0x44 CMakeFiles/led_blinky_peripheral_cm33_core0.elf.dir/home/brusli/Documents/Projects/NXP/main/sdks/main_testing_sdk/devices/MCXN947/utilities/str/fsl_str.c.obj
 .text.PrintIsfF
                0x00000000       0x2c CMakeFiles/led_blinky_peripheral_cm33_core0.elf.dir/home/brusli/Documents/Projects/NXP/main/sdks/main_testing_sdk/devices/MCXN947/utilities/str/fsl_str.c.obj
 .text.PrintIsxX
                0x00000000       0x2c CMakeFiles/led_blinky_peripheral_cm33_core0.elf.dir/home/brusli/Documents/Projects/NXP/main/sdks/main_testing_sdk/devices/MCXN947/utilities/str/fsl_str.c.obj
 .text.PrintFilterLengthFlag
                0x00000000       0x3e CMakeFiles/led_blinky_peripheral_cm33_core0.elf.dir/home/brusli/Documents/Projects/NXP/main/sdks/main_testing_sdk/devices/MCXN947/utilities/str/fsl_str.c.obj
 .text.PrintGetRadixFromobpu
                0x00000000       0x40 CMakeFiles/led_blinky_peripheral_cm33_core0.elf.dir/home/brusli/Documents/Projects/NXP/main/sdks/main_testing_sdk/devices/MCXN947/utilities/str/fsl_str.c.obj
 .text.ScanIsWhiteSpace
                0x00000000       0x44 CMakeFiles/led_blinky_peripheral_cm33_core0.elf.dir/home/brusli/Documents/Projects/NXP/main/sdks/main_testing_sdk/devices/MCXN947/utilities/str/fsl_str.c.obj
 .text.ScanIgnoreWhiteSpace
                0x00000000       0x46 CMakeFiles/led_blinky_peripheral_cm33_core0.elf.dir/home/brusli/Documents/Projects/NXP/main/sdks/main_testing_sdk/devices/MCXN947/utilities/str/fsl_str.c.obj
 .text.ConvertRadixNumToString
                0x00000000       0xc2 CMakeFiles/led_blinky_peripheral_cm33_core0.elf.dir/home/brusli/Documents/Projects/NXP/main/sdks/main_testing_sdk/devices/MCXN947/utilities/str/fsl_str.c.obj
 .text.StrFormatExaminedi
                0x00000000       0x26 CMakeFiles/led_blinky_peripheral_cm33_core0.elf.dir/home/brusli/Documents/Projects/NXP/main/sdks/main_testing_sdk/devices/MCXN947/utilities/str/fsl_str.c.obj
 .text.StrFormatExaminexX
                0x00000000       0x26 CMakeFiles/led_blinky_peripheral_cm33_core0.elf.dir/home/brusli/Documents/Projects/NXP/main/sdks/main_testing_sdk/devices/MCXN947/utilities/str/fsl_str.c.obj
 .text.StrFormatExamineobpu
                0x00000000       0x26 CMakeFiles/led_blinky_peripheral_cm33_core0.elf.dir/home/brusli/Documents/Projects/NXP/main/sdks/main_testing_sdk/devices/MCXN947/utilities/str/fsl_str.c.obj
 .text.ConvertPrecisionWidthToLength
                0x00000000       0x20 CMakeFiles/led_blinky_peripheral_cm33_core0.elf.dir/home/brusli/Documents/Projects/NXP/main/sdks/main_testing_sdk/devices/MCXN947/utilities/str/fsl_str.c.obj
 .text.StrFormatPrintf
                0x00000000      0x2bc CMakeFiles/led_blinky_peripheral_cm33_core0.elf.dir/home/brusli/Documents/Projects/NXP/main/sdks/main_testing_sdk/devices/MCXN947/utilities/str/fsl_str.c.obj
 .text.StrFormatScanIsFormatStarting
                0x00000000       0x36 CMakeFiles/led_blinky_peripheral_cm33_core0.elf.dir/home/brusli/Documents/Projects/NXP/main/sdks/main_testing_sdk/devices/MCXN947/utilities/str/fsl_str.c.obj
 .text.StrFormatScanGetBase
                0x00000000       0x4c CMakeFiles/led_blinky_peripheral_cm33_core0.elf.dir/home/brusli/Documents/Projects/NXP/main/sdks/main_testing_sdk/devices/MCXN947/utilities/str/fsl_str.c.obj
 .text.StrFormatScanCheckSymbol
                0x00000000       0x48 CMakeFiles/led_blinky_peripheral_cm33_core0.elf.dir/home/brusli/Documents/Projects/NXP/main/sdks/main_testing_sdk/devices/MCXN947/utilities/str/fsl_str.c.obj
 .text.StrFormatScanFillInteger
                0x00000000       0x46 CMakeFiles/led_blinky_peripheral_cm33_core0.elf.dir/home/brusli/Documents/Projects/NXP/main/sdks/main_testing_sdk/devices/MCXN947/utilities/str/fsl_str.c.obj
 .text.StrFormatScanfStringHandling
                0x00000000      0x18a CMakeFiles/led_blinky_peripheral_cm33_core0.elf.dir/home/brusli/Documents/Projects/NXP/main/sdks/main_testing_sdk/devices/MCXN947/utilities/str/fsl_str.c.obj
 .text.StrFormatScanfHandleChar
                0x00000000       0x5e CMakeFiles/led_blinky_peripheral_cm33_core0.elf.dir/home/brusli/Documents/Projects/NXP/main/sdks/main_testing_sdk/devices/MCXN947/utilities/str/fsl_str.c.obj
 .text.StrFormatScanfHandleString
                0x00000000       0x7e CMakeFiles/led_blinky_peripheral_cm33_core0.elf.dir/home/brusli/Documents/Projects/NXP/main/sdks/main_testing_sdk/devices/MCXN947/utilities/str/fsl_str.c.obj
 .text.StrFormatScanf
                0x00000000      0x2b8 CMakeFiles/led_blinky_peripheral_cm33_core0.elf.dir/home/brusli/Documents/Projects/NXP/main/sdks/main_testing_sdk/devices/MCXN947/utilities/str/fsl_str.c.obj
 .debug_info    0x00000000      0xce4 CMakeFiles/led_blinky_peripheral_cm33_core0.elf.dir/home/brusli/Documents/Projects/NXP/main/sdks/main_testing_sdk/devices/MCXN947/utilities/str/fsl_str.c.obj
 .debug_abbrev  0x00000000      0x273 CMakeFiles/led_blinky_peripheral_cm33_core0.elf.dir/home/brusli/Documents/Projects/NXP/main/sdks/main_testing_sdk/devices/MCXN947/utilities/str/fsl_str.c.obj
 .debug_aranges
                0x00000000       0xe8 CMakeFiles/led_blinky_peripheral_cm33_core0.elf.dir/home/brusli/Documents/Projects/NXP/main/sdks/main_testing_sdk/devices/MCXN947/utilities/str/fsl_str.c.obj
 .debug_rnglists
                0x00000000       0xca CMakeFiles/led_blinky_peripheral_cm33_core0.elf.dir/home/brusli/Documents/Projects/NXP/main/sdks/main_testing_sdk/devices/MCXN947/utilities/str/fsl_str.c.obj
 .debug_line    0x00000000      0xbcb CMakeFiles/led_blinky_peripheral_cm33_core0.elf.dir/home/brusli/Documents/Projects/NXP/main/sdks/main_testing_sdk/devices/MCXN947/utilities/str/fsl_str.c.obj
 .debug_str     0x00000000      0x6a4 CMakeFiles/led_blinky_peripheral_cm33_core0.elf.dir/home/brusli/Documents/Projects/NXP/main/sdks/main_testing_sdk/devices/MCXN947/utilities/str/fsl_str.c.obj
 .comment       0x00000000       0x46 CMakeFiles/led_blinky_peripheral_cm33_core0.elf.dir/home/brusli/Documents/Projects/NXP/main/sdks/main_testing_sdk/devices/MCXN947/utilities/str/fsl_str.c.obj
 .debug_frame   0x00000000      0x414 CMakeFiles/led_blinky_peripheral_cm33_core0.elf.dir/home/brusli/Documents/Projects/NXP/main/sdks/main_testing_sdk/devices/MCXN947/utilities/str/fsl_str.c.obj
 .ARM.attributes
                0x00000000       0x3a CMakeFiles/led_blinky_peripheral_cm33_core0.elf.dir/home/brusli/Documents/Projects/NXP/main/sdks/main_testing_sdk/devices/MCXN947/utilities/str/fsl_str.c.obj
 .data          0x00000000        0x0 /home/brusli/.mcuxpressotools/arm-gnu-toolchain-14.2.rel1-x86_64-arm-none-eabi/bin/../lib/gcc/arm-none-eabi/14.2.1/thumb/v8-m.main+fp/hard/libgcc.a(_arm_addsubdf3.o)
 .bss           0x00000000        0x0 /home/brusli/.mcuxpressotools/arm-gnu-toolchain-14.2.rel1-x86_64-arm-none-eabi/bin/../lib/gcc/arm-none-eabi/14.2.1/thumb/v8-m.main+fp/hard/libgcc.a(_arm_addsubdf3.o)
 .data          0x00000000        0x0 /home/brusli/.mcuxpressotools/arm-gnu-toolchain-14.2.rel1-x86_64-arm-none-eabi/bin/../lib/gcc/arm-none-eabi/14.2.1/thumb/v8-m.main+fp/hard/libgcc.a(_arm_muldivdf3.o)
 .bss           0x00000000        0x0 /home/brusli/.mcuxpressotools/arm-gnu-toolchain-14.2.rel1-x86_64-arm-none-eabi/bin/../lib/gcc/arm-none-eabi/14.2.1/thumb/v8-m.main+fp/hard/libgcc.a(_arm_muldivdf3.o)
 .text          0x00000000       0xa0 /home/brusli/.mcuxpressotools/arm-gnu-toolchain-14.2.rel1-x86_64-arm-none-eabi/bin/../lib/gcc/arm-none-eabi/14.2.1/thumb/v8-m.main+fp/hard/libgcc.a(_arm_truncdfsf2.o)
 .data          0x00000000        0x0 /home/brusli/.mcuxpressotools/arm-gnu-toolchain-14.2.rel1-x86_64-arm-none-eabi/bin/../lib/gcc/arm-none-eabi/14.2.1/thumb/v8-m.main+fp/hard/libgcc.a(_arm_truncdfsf2.o)
 .bss           0x00000000        0x0 /home/brusli/.mcuxpressotools/arm-gnu-toolchain-14.2.rel1-x86_64-arm-none-eabi/bin/../lib/gcc/arm-none-eabi/14.2.1/thumb/v8-m.main+fp/hard/libgcc.a(_arm_truncdfsf2.o)
 .debug_line_str
                0x00000000       0xcb /home/brusli/.mcuxpressotools/arm-gnu-toolchain-14.2.rel1-x86_64-arm-none-eabi/bin/../lib/gcc/arm-none-eabi/14.2.1/thumb/v8-m.main+fp/hard/libgcc.a(_arm_truncdfsf2.o)
 .debug_frame   0x00000000       0x24 /home/brusli/.mcuxpressotools/arm-gnu-toolchain-14.2.rel1-x86_64-arm-none-eabi/bin/../lib/gcc/arm-none-eabi/14.2.1/thumb/v8-m.main+fp/hard/libgcc.a(_arm_truncdfsf2.o)
 .ARM.attributes
                0x00000000       0x26 /home/brusli/.mcuxpressotools/arm-gnu-toolchain-14.2.rel1-x86_64-arm-none-eabi/bin/../lib/gcc/arm-none-eabi/14.2.1/thumb/v8-m.main+fp/hard/libgcc.a(_arm_truncdfsf2.o)
 .data          0x00000000        0x0 /home/brusli/.mcuxpressotools/arm-gnu-toolchain-14.2.rel1-x86_64-arm-none-eabi/bin/../lib/gcc/arm-none-eabi/14.2.1/thumb/v8-m.main+fp/hard/libgcc.a(_aeabi_uldivmod.o)
 .bss           0x00000000        0x0 /home/brusli/.mcuxpressotools/arm-gnu-toolchain-14.2.rel1-x86_64-arm-none-eabi/bin/../lib/gcc/arm-none-eabi/14.2.1/thumb/v8-m.main+fp/hard/libgcc.a(_aeabi_uldivmod.o)
 .text          0x00000000        0x0 /home/brusli/.mcuxpressotools/arm-gnu-toolchain-14.2.rel1-x86_64-arm-none-eabi/bin/../lib/gcc/arm-none-eabi/14.2.1/thumb/v8-m.main+fp/hard/libgcc.a(_fixunssfdi.o)
 .data          0x00000000        0x0 /home/brusli/.mcuxpressotools/arm-gnu-toolchain-14.2.rel1-x86_64-arm-none-eabi/bin/../lib/gcc/arm-none-eabi/14.2.1/thumb/v8-m.main+fp/hard/libgcc.a(_fixunssfdi.o)
 .bss           0x00000000        0x0 /home/brusli/.mcuxpressotools/arm-gnu-toolchain-14.2.rel1-x86_64-arm-none-eabi/bin/../lib/gcc/arm-none-eabi/14.2.1/thumb/v8-m.main+fp/hard/libgcc.a(_fixunssfdi.o)
 .text          0x00000000        0x0 /home/brusli/.mcuxpressotools/arm-gnu-toolchain-14.2.rel1-x86_64-arm-none-eabi/bin/../lib/gcc/arm-none-eabi/14.2.1/thumb/v8-m.main+fp/hard/libgcc.a(_udivmoddi4.o)
 .data          0x00000000        0x0 /home/brusli/.mcuxpressotools/arm-gnu-toolchain-14.2.rel1-x86_64-arm-none-eabi/bin/../lib/gcc/arm-none-eabi/14.2.1/thumb/v8-m.main+fp/hard/libgcc.a(_udivmoddi4.o)
 .bss           0x00000000        0x0 /home/brusli/.mcuxpressotools/arm-gnu-toolchain-14.2.rel1-x86_64-arm-none-eabi/bin/../lib/gcc/arm-none-eabi/14.2.1/thumb/v8-m.main+fp/hard/libgcc.a(_udivmoddi4.o)
 .ARM.extab.text.__udivmoddi4
                0x00000000        0x0 /home/brusli/.mcuxpressotools/arm-gnu-toolchain-14.2.rel1-x86_64-arm-none-eabi/bin/../lib/gcc/arm-none-eabi/14.2.1/thumb/v8-m.main+fp/hard/libgcc.a(_udivmoddi4.o)
 .data          0x00000000        0x0 /home/brusli/.mcuxpressotools/arm-gnu-toolchain-14.2.rel1-x86_64-arm-none-eabi/bin/../lib/gcc/arm-none-eabi/14.2.1/thumb/v8-m.main+fp/hard/libgcc.a(_dvmd_tls.o)
 .bss           0x00000000        0x0 /home/brusli/.mcuxpressotools/arm-gnu-toolchain-14.2.rel1-x86_64-arm-none-eabi/bin/../lib/gcc/arm-none-eabi/14.2.1/thumb/v8-m.main+fp/hard/libgcc.a(_dvmd_tls.o)
 .data          0x00000000        0x0 /home/brusli/.mcuxpressotools/arm-gnu-toolchain-14.2.rel1-x86_64-arm-none-eabi/bin/../lib/gcc/arm-none-eabi/14.2.1/thumb/v8-m.main+fp/hard/libgcc.a(_arm_fixunsdfsi.o)
 .bss           0x00000000        0x0 /home/brusli/.mcuxpressotools/arm-gnu-toolchain-14.2.rel1-x86_64-arm-none-eabi/bin/../lib/gcc/arm-none-eabi/14.2.1/thumb/v8-m.main+fp/hard/libgcc.a(_arm_fixunsdfsi.o)
 .text          0x00000000        0x0 /home/brusli/.mcuxpressotools/arm-gnu-toolchain-14.2.rel1-x86_64-arm-none-eabi/bin/../lib/gcc/arm-none-eabi/14.2.1/../../../../arm-none-eabi/lib/thumb/v8-m.main+fp/hard/libc_nano.a(libc_a-exit.o)
 .data          0x00000000        0x0 /home/brusli/.mcuxpressotools/arm-gnu-toolchain-14.2.rel1-x86_64-arm-none-eabi/bin/../lib/gcc/arm-none-eabi/14.2.1/../../../../arm-none-eabi/lib/thumb/v8-m.main+fp/hard/libc_nano.a(libc_a-exit.o)
 .bss           0x00000000        0x0 /home/brusli/.mcuxpressotools/arm-gnu-toolchain-14.2.rel1-x86_64-arm-none-eabi/bin/../lib/gcc/arm-none-eabi/14.2.1/../../../../arm-none-eabi/lib/thumb/v8-m.main+fp/hard/libc_nano.a(libc_a-exit.o)
 .text          0x00000000        0x0 /home/brusli/.mcuxpressotools/arm-gnu-toolchain-14.2.rel1-x86_64-arm-none-eabi/bin/../lib/gcc/arm-none-eabi/14.2.1/../../../../arm-none-eabi/lib/thumb/v8-m.main+fp/hard/libc_nano.a(libc_a-malloc.o)
 .data          0x00000000        0x0 /home/brusli/.mcuxpressotools/arm-gnu-toolchain-14.2.rel1-x86_64-arm-none-eabi/bin/../lib/gcc/arm-none-eabi/14.2.1/../../../../arm-none-eabi/lib/thumb/v8-m.main+fp/hard/libc_nano.a(libc_a-malloc.o)
 .bss           0x00000000        0x0 /home/brusli/.mcuxpressotools/arm-gnu-toolchain-14.2.rel1-x86_64-arm-none-eabi/bin/../lib/gcc/arm-none-eabi/14.2.1/../../../../arm-none-eabi/lib/thumb/v8-m.main+fp/hard/libc_nano.a(libc_a-malloc.o)
 .text.malloc   0x00000000       0x10 /home/brusli/.mcuxpressotools/arm-gnu-toolchain-14.2.rel1-x86_64-arm-none-eabi/bin/../lib/gcc/arm-none-eabi/14.2.1/../../../../arm-none-eabi/lib/thumb/v8-m.main+fp/hard/libc_nano.a(libc_a-malloc.o)
 .text.free     0x00000000       0x10 /home/brusli/.mcuxpressotools/arm-gnu-toolchain-14.2.rel1-x86_64-arm-none-eabi/bin/../lib/gcc/arm-none-eabi/14.2.1/../../../../arm-none-eabi/lib/thumb/v8-m.main+fp/hard/libc_nano.a(libc_a-malloc.o)
 .debug_frame   0x00000000       0x30 /home/brusli/.mcuxpressotools/arm-gnu-toolchain-14.2.rel1-x86_64-arm-none-eabi/bin/../lib/gcc/arm-none-eabi/14.2.1/../../../../arm-none-eabi/lib/thumb/v8-m.main+fp/hard/libc_nano.a(libc_a-malloc.o)
 .ARM.attributes
                0x00000000       0x38 /home/brusli/.mcuxpressotools/arm-gnu-toolchain-14.2.rel1-x86_64-arm-none-eabi/bin/../lib/gcc/arm-none-eabi/14.2.1/../../../../arm-none-eabi/lib/thumb/v8-m.main+fp/hard/libc_nano.a(libc_a-malloc.o)
 .text          0x00000000        0x0 /home/brusli/.mcuxpressotools/arm-gnu-toolchain-14.2.rel1-x86_64-arm-none-eabi/bin/../lib/gcc/arm-none-eabi/14.2.1/../../../../arm-none-eabi/lib/thumb/v8-m.main+fp/hard/libc_nano.a(libc_a-mallocr.o)
 .data          0x00000000        0x0 /home/brusli/.mcuxpressotools/arm-gnu-toolchain-14.2.rel1-x86_64-arm-none-eabi/bin/../lib/gcc/arm-none-eabi/14.2.1/../../../../arm-none-eabi/lib/thumb/v8-m.main+fp/hard/libc_nano.a(libc_a-mallocr.o)
 .bss           0x00000000        0x0 /home/brusli/.mcuxpressotools/arm-gnu-toolchain-14.2.rel1-x86_64-arm-none-eabi/bin/../lib/gcc/arm-none-eabi/14.2.1/../../../../arm-none-eabi/lib/thumb/v8-m.main+fp/hard/libc_nano.a(libc_a-mallocr.o)
 .text          0x00000000        0x0 /home/brusli/.mcuxpressotools/arm-gnu-toolchain-14.2.rel1-x86_64-arm-none-eabi/bin/../lib/gcc/arm-none-eabi/14.2.1/../../../../arm-none-eabi/lib/thumb/v8-m.main+fp/hard/libc_nano.a(libc_a-mlock.o)
 .data          0x00000000        0x0 /home/brusli/.mcuxpressotools/arm-gnu-toolchain-14.2.rel1-x86_64-arm-none-eabi/bin/../lib/gcc/arm-none-eabi/14.2.1/../../../../arm-none-eabi/lib/thumb/v8-m.main+fp/hard/libc_nano.a(libc_a-mlock.o)
 .bss           0x00000000        0x0 /home/brusli/.mcuxpressotools/arm-gnu-toolchain-14.2.rel1-x86_64-arm-none-eabi/bin/../lib/gcc/arm-none-eabi/14.2.1/../../../../arm-none-eabi/lib/thumb/v8-m.main+fp/hard/libc_nano.a(libc_a-mlock.o)
 .text          0x00000000        0x0 /home/brusli/.mcuxpressotools/arm-gnu-toolchain-14.2.rel1-x86_64-arm-none-eabi/bin/../lib/gcc/arm-none-eabi/14.2.1/../../../../arm-none-eabi/lib/thumb/v8-m.main+fp/hard/libc_nano.a(libc_a-strtoul.o)
 .data          0x00000000        0x0 /home/brusli/.mcuxpressotools/arm-gnu-toolchain-14.2.rel1-x86_64-arm-none-eabi/bin/../lib/gcc/arm-none-eabi/14.2.1/../../../../arm-none-eabi/lib/thumb/v8-m.main+fp/hard/libc_nano.a(libc_a-strtoul.o)
 .bss           0x00000000        0x0 /home/brusli/.mcuxpressotools/arm-gnu-toolchain-14.2.rel1-x86_64-arm-none-eabi/bin/../lib/gcc/arm-none-eabi/14.2.1/../../../../arm-none-eabi/lib/thumb/v8-m.main+fp/hard/libc_nano.a(libc_a-strtoul.o)
 .text._strtoul_l.isra.0
                0x00000000       0xdc /home/brusli/.mcuxpressotools/arm-gnu-toolchain-14.2.rel1-x86_64-arm-none-eabi/bin/../lib/gcc/arm-none-eabi/14.2.1/../../../../arm-none-eabi/lib/thumb/v8-m.main+fp/hard/libc_nano.a(libc_a-strtoul.o)
 .text._strtoul_r
                0x00000000        0x4 /home/brusli/.mcuxpressotools/arm-gnu-toolchain-14.2.rel1-x86_64-arm-none-eabi/bin/../lib/gcc/arm-none-eabi/14.2.1/../../../../arm-none-eabi/lib/thumb/v8-m.main+fp/hard/libc_nano.a(libc_a-strtoul.o)
 .text.strtoul_l
                0x00000000       0x14 /home/brusli/.mcuxpressotools/arm-gnu-toolchain-14.2.rel1-x86_64-arm-none-eabi/bin/../lib/gcc/arm-none-eabi/14.2.1/../../../../arm-none-eabi/lib/thumb/v8-m.main+fp/hard/libc_nano.a(libc_a-strtoul.o)
 .text.strtoul  0x00000000       0x14 /home/brusli/.mcuxpressotools/arm-gnu-toolchain-14.2.rel1-x86_64-arm-none-eabi/bin/../lib/gcc/arm-none-eabi/14.2.1/../../../../arm-none-eabi/lib/thumb/v8-m.main+fp/hard/libc_nano.a(libc_a-strtoul.o)
 .debug_frame   0x00000000       0x64 /home/brusli/.mcuxpressotools/arm-gnu-toolchain-14.2.rel1-x86_64-arm-none-eabi/bin/../lib/gcc/arm-none-eabi/14.2.1/../../../../arm-none-eabi/lib/thumb/v8-m.main+fp/hard/libc_nano.a(libc_a-strtoul.o)
 .ARM.attributes
                0x00000000       0x38 /home/brusli/.mcuxpressotools/arm-gnu-toolchain-14.2.rel1-x86_64-arm-none-eabi/bin/../lib/gcc/arm-none-eabi/14.2.1/../../../../arm-none-eabi/lib/thumb/v8-m.main+fp/hard/libc_nano.a(libc_a-strtoul.o)
 .text          0x00000000        0x0 /home/brusli/.mcuxpressotools/arm-gnu-toolchain-14.2.rel1-x86_64-arm-none-eabi/bin/../lib/gcc/arm-none-eabi/14.2.1/../../../../arm-none-eabi/lib/thumb/v8-m.main+fp/hard/libc_nano.a(libc_a-ctype_.o)
 .data          0x00000000        0x0 /home/brusli/.mcuxpressotools/arm-gnu-toolchain-14.2.rel1-x86_64-arm-none-eabi/bin/../lib/gcc/arm-none-eabi/14.2.1/../../../../arm-none-eabi/lib/thumb/v8-m.main+fp/hard/libc_nano.a(libc_a-ctype_.o)
 .bss           0x00000000        0x0 /home/brusli/.mcuxpressotools/arm-gnu-toolchain-14.2.rel1-x86_64-arm-none-eabi/bin/../lib/gcc/arm-none-eabi/14.2.1/../../../../arm-none-eabi/lib/thumb/v8-m.main+fp/hard/libc_nano.a(libc_a-ctype_.o)
 .rodata._ctype_
                0x00000000      0x101 /home/brusli/.mcuxpressotools/arm-gnu-toolchain-14.2.rel1-x86_64-arm-none-eabi/bin/../lib/gcc/arm-none-eabi/14.2.1/../../../../arm-none-eabi/lib/thumb/v8-m.main+fp/hard/libc_nano.a(libc_a-ctype_.o)
 .ARM.attributes
                0x00000000       0x38 /home/brusli/.mcuxpressotools/arm-gnu-toolchain-14.2.rel1-x86_64-arm-none-eabi/bin/../lib/gcc/arm-none-eabi/14.2.1/../../../../arm-none-eabi/lib/thumb/v8-m.main+fp/hard/libc_nano.a(libc_a-ctype_.o)
 .text          0x00000000        0x0 /home/brusli/.mcuxpressotools/arm-gnu-toolchain-14.2.rel1-x86_64-arm-none-eabi/bin/../lib/gcc/arm-none-eabi/14.2.1/../../../../arm-none-eabi/lib/thumb/v8-m.main+fp/hard/libc_nano.a(libc_a-findfp.o)
 .data          0x00000000        0x0 /home/brusli/.mcuxpressotools/arm-gnu-toolchain-14.2.rel1-x86_64-arm-none-eabi/bin/../lib/gcc/arm-none-eabi/14.2.1/../../../../arm-none-eabi/lib/thumb/v8-m.main+fp/hard/libc_nano.a(libc_a-findfp.o)
 .bss           0x00000000        0x0 /home/brusli/.mcuxpressotools/arm-gnu-toolchain-14.2.rel1-x86_64-arm-none-eabi/bin/../lib/gcc/arm-none-eabi/14.2.1/../../../../arm-none-eabi/lib/thumb/v8-m.main+fp/hard/libc_nano.a(libc_a-findfp.o)
 .text.std      0x00000000       0x6c /home/brusli/.mcuxpressotools/arm-gnu-toolchain-14.2.rel1-x86_64-arm-none-eabi/bin/../lib/gcc/arm-none-eabi/14.2.1/../../../../arm-none-eabi/lib/thumb/v8-m.main+fp/hard/libc_nano.a(libc_a-findfp.o)
 .text.stdio_exit_handler
                0x00000000       0x18 /home/brusli/.mcuxpressotools/arm-gnu-toolchain-14.2.rel1-x86_64-arm-none-eabi/bin/../lib/gcc/arm-none-eabi/14.2.1/../../../../arm-none-eabi/lib/thumb/v8-m.main+fp/hard/libc_nano.a(libc_a-findfp.o)
 .text.cleanup_stdio
                0x00000000       0x40 /home/brusli/.mcuxpressotools/arm-gnu-toolchain-14.2.rel1-x86_64-arm-none-eabi/bin/../lib/gcc/arm-none-eabi/14.2.1/../../../../arm-none-eabi/lib/thumb/v8-m.main+fp/hard/libc_nano.a(libc_a-findfp.o)
 .text.__fp_lock
                0x00000000       0x18 /home/brusli/.mcuxpressotools/arm-gnu-toolchain-14.2.rel1-x86_64-arm-none-eabi/bin/../lib/gcc/arm-none-eabi/14.2.1/../../../../arm-none-eabi/lib/thumb/v8-m.main+fp/hard/libc_nano.a(libc_a-findfp.o)
 .text.__fp_unlock
                0x00000000       0x18 /home/brusli/.mcuxpressotools/arm-gnu-toolchain-14.2.rel1-x86_64-arm-none-eabi/bin/../lib/gcc/arm-none-eabi/14.2.1/../../../../arm-none-eabi/lib/thumb/v8-m.main+fp/hard/libc_nano.a(libc_a-findfp.o)
 .text.global_stdio_init.part.0
                0x00000000       0x40 /home/brusli/.mcuxpressotools/arm-gnu-toolchain-14.2.rel1-x86_64-arm-none-eabi/bin/../lib/gcc/arm-none-eabi/14.2.1/../../../../arm-none-eabi/lib/thumb/v8-m.main+fp/hard/libc_nano.a(libc_a-findfp.o)
 .text.__sfp_lock_acquire
                0x00000000        0xc /home/brusli/.mcuxpressotools/arm-gnu-toolchain-14.2.rel1-x86_64-arm-none-eabi/bin/../lib/gcc/arm-none-eabi/14.2.1/../../../../arm-none-eabi/lib/thumb/v8-m.main+fp/hard/libc_nano.a(libc_a-findfp.o)
 .text.__sfp_lock_release
                0x00000000        0xc /home/brusli/.mcuxpressotools/arm-gnu-toolchain-14.2.rel1-x86_64-arm-none-eabi/bin/../lib/gcc/arm-none-eabi/14.2.1/../../../../arm-none-eabi/lib/thumb/v8-m.main+fp/hard/libc_nano.a(libc_a-findfp.o)
 .text.__sfp    0x00000000       0xa8 /home/brusli/.mcuxpressotools/arm-gnu-toolchain-14.2.rel1-x86_64-arm-none-eabi/bin/../lib/gcc/arm-none-eabi/14.2.1/../../../../arm-none-eabi/lib/thumb/v8-m.main+fp/hard/libc_nano.a(libc_a-findfp.o)
 .text.__sinit  0x00000000       0x30 /home/brusli/.mcuxpressotools/arm-gnu-toolchain-14.2.rel1-x86_64-arm-none-eabi/bin/../lib/gcc/arm-none-eabi/14.2.1/../../../../arm-none-eabi/lib/thumb/v8-m.main+fp/hard/libc_nano.a(libc_a-findfp.o)
 .text.__fp_lock_all
                0x00000000       0x1c /home/brusli/.mcuxpressotools/arm-gnu-toolchain-14.2.rel1-x86_64-arm-none-eabi/bin/../lib/gcc/arm-none-eabi/14.2.1/../../../../arm-none-eabi/lib/thumb/v8-m.main+fp/hard/libc_nano.a(libc_a-findfp.o)
 .text.__fp_unlock_all
                0x00000000       0x1c /home/brusli/.mcuxpressotools/arm-gnu-toolchain-14.2.rel1-x86_64-arm-none-eabi/bin/../lib/gcc/arm-none-eabi/14.2.1/../../../../arm-none-eabi/lib/thumb/v8-m.main+fp/hard/libc_nano.a(libc_a-findfp.o)
 .data.__sglue  0x00000000        0xc /home/brusli/.mcuxpressotools/arm-gnu-toolchain-14.2.rel1-x86_64-arm-none-eabi/bin/../lib/gcc/arm-none-eabi/14.2.1/../../../../arm-none-eabi/lib/thumb/v8-m.main+fp/hard/libc_nano.a(libc_a-findfp.o)
 .text          0x00000000        0x0 /home/brusli/.mcuxpressotools/arm-gnu-toolchain-14.2.rel1-x86_64-arm-none-eabi/bin/../lib/gcc/arm-none-eabi/14.2.1/../../../../arm-none-eabi/lib/thumb/v8-m.main+fp/hard/libc_nano.a(libc_a-fwalk.o)
 .data          0x00000000        0x0 /home/brusli/.mcuxpressotools/arm-gnu-toolchain-14.2.rel1-x86_64-arm-none-eabi/bin/../lib/gcc/arm-none-eabi/14.2.1/../../../../arm-none-eabi/lib/thumb/v8-m.main+fp/hard/libc_nano.a(libc_a-fwalk.o)
 .bss           0x00000000        0x0 /home/brusli/.mcuxpressotools/arm-gnu-toolchain-14.2.rel1-x86_64-arm-none-eabi/bin/../lib/gcc/arm-none-eabi/14.2.1/../../../../arm-none-eabi/lib/thumb/v8-m.main+fp/hard/libc_nano.a(libc_a-fwalk.o)
 .text._fwalk_sglue
                0x00000000       0x3c /home/brusli/.mcuxpressotools/arm-gnu-toolchain-14.2.rel1-x86_64-arm-none-eabi/bin/../lib/gcc/arm-none-eabi/14.2.1/../../../../arm-none-eabi/lib/thumb/v8-m.main+fp/hard/libc_nano.a(libc_a-fwalk.o)
 .debug_frame   0x00000000       0x34 /home/brusli/.mcuxpressotools/arm-gnu-toolchain-14.2.rel1-x86_64-arm-none-eabi/bin/../lib/gcc/arm-none-eabi/14.2.1/../../../../arm-none-eabi/lib/thumb/v8-m.main+fp/hard/libc_nano.a(libc_a-fwalk.o)
 .ARM.attributes
                0x00000000       0x38 /home/brusli/.mcuxpressotools/arm-gnu-toolchain-14.2.rel1-x86_64-arm-none-eabi/bin/../lib/gcc/arm-none-eabi/14.2.1/../../../../arm-none-eabi/lib/thumb/v8-m.main+fp/hard/libc_nano.a(libc_a-fwalk.o)
 .text          0x00000000        0x0 /home/brusli/.mcuxpressotools/arm-gnu-toolchain-14.2.rel1-x86_64-arm-none-eabi/bin/../lib/gcc/arm-none-eabi/14.2.1/../../../../arm-none-eabi/lib/thumb/v8-m.main+fp/hard/libc_nano.a(libc_a-sprintf.o)
 .data          0x00000000        0x0 /home/brusli/.mcuxpressotools/arm-gnu-toolchain-14.2.rel1-x86_64-arm-none-eabi/bin/../lib/gcc/arm-none-eabi/14.2.1/../../../../arm-none-eabi/lib/thumb/v8-m.main+fp/hard/libc_nano.a(libc_a-sprintf.o)
 .bss           0x00000000        0x0 /home/brusli/.mcuxpressotools/arm-gnu-toolchain-14.2.rel1-x86_64-arm-none-eabi/bin/../lib/gcc/arm-none-eabi/14.2.1/../../../../arm-none-eabi/lib/thumb/v8-m.main+fp/hard/libc_nano.a(libc_a-sprintf.o)
 .text._sprintf_r
                0x00000000       0x3c /home/brusli/.mcuxpressotools/arm-gnu-toolchain-14.2.rel1-x86_64-arm-none-eabi/bin/../lib/gcc/arm-none-eabi/14.2.1/../../../../arm-none-eabi/lib/thumb/v8-m.main+fp/hard/libc_nano.a(libc_a-sprintf.o)
 .text.sprintf  0x00000000       0x44 /home/brusli/.mcuxpressotools/arm-gnu-toolchain-14.2.rel1-x86_64-arm-none-eabi/bin/../lib/gcc/arm-none-eabi/14.2.1/../../../../arm-none-eabi/lib/thumb/v8-m.main+fp/hard/libc_nano.a(libc_a-sprintf.o)
 .debug_frame   0x00000000       0x74 /home/brusli/.mcuxpressotools/arm-gnu-toolchain-14.2.rel1-x86_64-arm-none-eabi/bin/../lib/gcc/arm-none-eabi/14.2.1/../../../../arm-none-eabi/lib/thumb/v8-m.main+fp/hard/libc_nano.a(libc_a-sprintf.o)
 .ARM.attributes
                0x00000000       0x38 /home/brusli/.mcuxpressotools/arm-gnu-toolchain-14.2.rel1-x86_64-arm-none-eabi/bin/../lib/gcc/arm-none-eabi/14.2.1/../../../../arm-none-eabi/lib/thumb/v8-m.main+fp/hard/libc_nano.a(libc_a-sprintf.o)
 .text          0x00000000        0x0 /home/brusli/.mcuxpressotools/arm-gnu-toolchain-14.2.rel1-x86_64-arm-none-eabi/bin/../lib/gcc/arm-none-eabi/14.2.1/../../../../arm-none-eabi/lib/thumb/v8-m.main+fp/hard/libc_nano.a(libc_a-stdio.o)
 .data          0x00000000        0x0 /home/brusli/.mcuxpressotools/arm-gnu-toolchain-14.2.rel1-x86_64-arm-none-eabi/bin/../lib/gcc/arm-none-eabi/14.2.1/../../../../arm-none-eabi/lib/thumb/v8-m.main+fp/hard/libc_nano.a(libc_a-stdio.o)
 .bss           0x00000000        0x0 /home/brusli/.mcuxpressotools/arm-gnu-toolchain-14.2.rel1-x86_64-arm-none-eabi/bin/../lib/gcc/arm-none-eabi/14.2.1/../../../../arm-none-eabi/lib/thumb/v8-m.main+fp/hard/libc_nano.a(libc_a-stdio.o)
 .text.__sread  0x00000000       0x22 /home/brusli/.mcuxpressotools/arm-gnu-toolchain-14.2.rel1-x86_64-arm-none-eabi/bin/../lib/gcc/arm-none-eabi/14.2.1/../../../../arm-none-eabi/lib/thumb/v8-m.main+fp/hard/libc_nano.a(libc_a-stdio.o)
 .text.__seofread
                0x00000000        0x4 /home/brusli/.mcuxpressotools/arm-gnu-toolchain-14.2.rel1-x86_64-arm-none-eabi/bin/../lib/gcc/arm-none-eabi/14.2.1/../../../../arm-none-eabi/lib/thumb/v8-m.main+fp/hard/libc_nano.a(libc_a-stdio.o)
 .text.__swrite
                0x00000000       0x38 /home/brusli/.mcuxpressotools/arm-gnu-toolchain-14.2.rel1-x86_64-arm-none-eabi/bin/../lib/gcc/arm-none-eabi/14.2.1/../../../../arm-none-eabi/lib/thumb/v8-m.main+fp/hard/libc_nano.a(libc_a-stdio.o)
 .text.__sseek  0x00000000       0x26 /home/brusli/.mcuxpressotools/arm-gnu-toolchain-14.2.rel1-x86_64-arm-none-eabi/bin/../lib/gcc/arm-none-eabi/14.2.1/../../../../arm-none-eabi/lib/thumb/v8-m.main+fp/hard/libc_nano.a(libc_a-stdio.o)
 .text.__sclose
                0x00000000        0x8 /home/brusli/.mcuxpressotools/arm-gnu-toolchain-14.2.rel1-x86_64-arm-none-eabi/bin/../lib/gcc/arm-none-eabi/14.2.1/../../../../arm-none-eabi/lib/thumb/v8-m.main+fp/hard/libc_nano.a(libc_a-stdio.o)
 .debug_frame   0x00000000       0x88 /home/brusli/.mcuxpressotools/arm-gnu-toolchain-14.2.rel1-x86_64-arm-none-eabi/bin/../lib/gcc/arm-none-eabi/14.2.1/../../../../arm-none-eabi/lib/thumb/v8-m.main+fp/hard/libc_nano.a(libc_a-stdio.o)
 .ARM.attributes
                0x00000000       0x38 /home/brusli/.mcuxpressotools/arm-gnu-toolchain-14.2.rel1-x86_64-arm-none-eabi/bin/../lib/gcc/arm-none-eabi/14.2.1/../../../../arm-none-eabi/lib/thumb/v8-m.main+fp/hard/libc_nano.a(libc_a-stdio.o)
 .text          0x00000000        0x0 /home/brusli/.mcuxpressotools/arm-gnu-toolchain-14.2.rel1-x86_64-arm-none-eabi/bin/../lib/gcc/arm-none-eabi/14.2.1/../../../../arm-none-eabi/lib/thumb/v8-m.main+fp/hard/libc_nano.a(libc_a-vsnprintf.o)
 .data          0x00000000        0x0 /home/brusli/.mcuxpressotools/arm-gnu-toolchain-14.2.rel1-x86_64-arm-none-eabi/bin/../lib/gcc/arm-none-eabi/14.2.1/../../../../arm-none-eabi/lib/thumb/v8-m.main+fp/hard/libc_nano.a(libc_a-vsnprintf.o)
 .bss           0x00000000        0x0 /home/brusli/.mcuxpressotools/arm-gnu-toolchain-14.2.rel1-x86_64-arm-none-eabi/bin/../lib/gcc/arm-none-eabi/14.2.1/../../../../arm-none-eabi/lib/thumb/v8-m.main+fp/hard/libc_nano.a(libc_a-vsnprintf.o)
 .text          0x00000000        0x0 /home/brusli/.mcuxpressotools/arm-gnu-toolchain-14.2.rel1-x86_64-arm-none-eabi/bin/../lib/gcc/arm-none-eabi/14.2.1/../../../../arm-none-eabi/lib/thumb/v8-m.main+fp/hard/libc_nano.a(libc_a-vsprintf.o)
 .data          0x00000000        0x0 /home/brusli/.mcuxpressotools/arm-gnu-toolchain-14.2.rel1-x86_64-arm-none-eabi/bin/../lib/gcc/arm-none-eabi/14.2.1/../../../../arm-none-eabi/lib/thumb/v8-m.main+fp/hard/libc_nano.a(libc_a-vsprintf.o)
 .bss           0x00000000        0x0 /home/brusli/.mcuxpressotools/arm-gnu-toolchain-14.2.rel1-x86_64-arm-none-eabi/bin/../lib/gcc/arm-none-eabi/14.2.1/../../../../arm-none-eabi/lib/thumb/v8-m.main+fp/hard/libc_nano.a(libc_a-vsprintf.o)
 .text          0x00000000        0x0 /home/brusli/.mcuxpressotools/arm-gnu-toolchain-14.2.rel1-x86_64-arm-none-eabi/bin/../lib/gcc/arm-none-eabi/14.2.1/../../../../arm-none-eabi/lib/thumb/v8-m.main+fp/hard/libc_nano.a(libc_a-memset.o)
 .data          0x00000000        0x0 /home/brusli/.mcuxpressotools/arm-gnu-toolchain-14.2.rel1-x86_64-arm-none-eabi/bin/../lib/gcc/arm-none-eabi/14.2.1/../../../../arm-none-eabi/lib/thumb/v8-m.main+fp/hard/libc_nano.a(libc_a-memset.o)
 .bss           0x00000000        0x0 /home/brusli/.mcuxpressotools/arm-gnu-toolchain-14.2.rel1-x86_64-arm-none-eabi/bin/../lib/gcc/arm-none-eabi/14.2.1/../../../../arm-none-eabi/lib/thumb/v8-m.main+fp/hard/libc_nano.a(libc_a-memset.o)
 .text          0x00000000        0x0 /home/brusli/.mcuxpressotools/arm-gnu-toolchain-14.2.rel1-x86_64-arm-none-eabi/bin/../lib/gcc/arm-none-eabi/14.2.1/../../../../arm-none-eabi/lib/thumb/v8-m.main+fp/hard/libc_nano.a(libc_a-closer.o)
 .data          0x00000000        0x0 /home/brusli/.mcuxpressotools/arm-gnu-toolchain-14.2.rel1-x86_64-arm-none-eabi/bin/../lib/gcc/arm-none-eabi/14.2.1/../../../../arm-none-eabi/lib/thumb/v8-m.main+fp/hard/libc_nano.a(libc_a-closer.o)
 .bss           0x00000000        0x0 /home/brusli/.mcuxpressotools/arm-gnu-toolchain-14.2.rel1-x86_64-arm-none-eabi/bin/../lib/gcc/arm-none-eabi/14.2.1/../../../../arm-none-eabi/lib/thumb/v8-m.main+fp/hard/libc_nano.a(libc_a-closer.o)
 .text._close_r
                0x00000000       0x20 /home/brusli/.mcuxpressotools/arm-gnu-toolchain-14.2.rel1-x86_64-arm-none-eabi/bin/../lib/gcc/arm-none-eabi/14.2.1/../../../../arm-none-eabi/lib/thumb/v8-m.main+fp/hard/libc_nano.a(libc_a-closer.o)
 .debug_frame   0x00000000       0x2c /home/brusli/.mcuxpressotools/arm-gnu-toolchain-14.2.rel1-x86_64-arm-none-eabi/bin/../lib/gcc/arm-none-eabi/14.2.1/../../../../arm-none-eabi/lib/thumb/v8-m.main+fp/hard/libc_nano.a(libc_a-closer.o)
 .ARM.attributes
                0x00000000       0x38 /home/brusli/.mcuxpressotools/arm-gnu-toolchain-14.2.rel1-x86_64-arm-none-eabi/bin/../lib/gcc/arm-none-eabi/14.2.1/../../../../arm-none-eabi/lib/thumb/v8-m.main+fp/hard/libc_nano.a(libc_a-closer.o)
 .text          0x00000000        0x0 /home/brusli/.mcuxpressotools/arm-gnu-toolchain-14.2.rel1-x86_64-arm-none-eabi/bin/../lib/gcc/arm-none-eabi/14.2.1/../../../../arm-none-eabi/lib/thumb/v8-m.main+fp/hard/libc_nano.a(libc_a-reent.o)
 .data          0x00000000        0x0 /home/brusli/.mcuxpressotools/arm-gnu-toolchain-14.2.rel1-x86_64-arm-none-eabi/bin/../lib/gcc/arm-none-eabi/14.2.1/../../../../arm-none-eabi/lib/thumb/v8-m.main+fp/hard/libc_nano.a(libc_a-reent.o)
 .bss           0x00000000        0x0 /home/brusli/.mcuxpressotools/arm-gnu-toolchain-14.2.rel1-x86_64-arm-none-eabi/bin/../lib/gcc/arm-none-eabi/14.2.1/../../../../arm-none-eabi/lib/thumb/v8-m.main+fp/hard/libc_nano.a(libc_a-reent.o)
 .text._reclaim_reent
                0x00000000       0xbc /home/brusli/.mcuxpressotools/arm-gnu-toolchain-14.2.rel1-x86_64-arm-none-eabi/bin/../lib/gcc/arm-none-eabi/14.2.1/../../../../arm-none-eabi/lib/thumb/v8-m.main+fp/hard/libc_nano.a(libc_a-reent.o)
 .text          0x00000000        0x0 /home/brusli/.mcuxpressotools/arm-gnu-toolchain-14.2.rel1-x86_64-arm-none-eabi/bin/../lib/gcc/arm-none-eabi/14.2.1/../../../../arm-none-eabi/lib/thumb/v8-m.main+fp/hard/libc_nano.a(libc_a-impure.o)
 .data          0x00000000        0x0 /home/brusli/.mcuxpressotools/arm-gnu-toolchain-14.2.rel1-x86_64-arm-none-eabi/bin/../lib/gcc/arm-none-eabi/14.2.1/../../../../arm-none-eabi/lib/thumb/v8-m.main+fp/hard/libc_nano.a(libc_a-impure.o)
 .bss           0x00000000        0x0 /home/brusli/.mcuxpressotools/arm-gnu-toolchain-14.2.rel1-x86_64-arm-none-eabi/bin/../lib/gcc/arm-none-eabi/14.2.1/../../../../arm-none-eabi/lib/thumb/v8-m.main+fp/hard/libc_nano.a(libc_a-impure.o)
 .text          0x00000000        0x0 /home/brusli/.mcuxpressotools/arm-gnu-toolchain-14.2.rel1-x86_64-arm-none-eabi/bin/../lib/gcc/arm-none-eabi/14.2.1/../../../../arm-none-eabi/lib/thumb/v8-m.main+fp/hard/libc_nano.a(libc_a-lseekr.o)
 .data          0x00000000        0x0 /home/brusli/.mcuxpressotools/arm-gnu-toolchain-14.2.rel1-x86_64-arm-none-eabi/bin/../lib/gcc/arm-none-eabi/14.2.1/../../../../arm-none-eabi/lib/thumb/v8-m.main+fp/hard/libc_nano.a(libc_a-lseekr.o)
 .bss           0x00000000        0x0 /home/brusli/.mcuxpressotools/arm-gnu-toolchain-14.2.rel1-x86_64-arm-none-eabi/bin/../lib/gcc/arm-none-eabi/14.2.1/../../../../arm-none-eabi/lib/thumb/v8-m.main+fp/hard/libc_nano.a(libc_a-lseekr.o)
 .text._lseek_r
                0x00000000       0x24 /home/brusli/.mcuxpressotools/arm-gnu-toolchain-14.2.rel1-x86_64-arm-none-eabi/bin/../lib/gcc/arm-none-eabi/14.2.1/../../../../arm-none-eabi/lib/thumb/v8-m.main+fp/hard/libc_nano.a(libc_a-lseekr.o)
 .debug_frame   0x00000000       0x2c /home/brusli/.mcuxpressotools/arm-gnu-toolchain-14.2.rel1-x86_64-arm-none-eabi/bin/../lib/gcc/arm-none-eabi/14.2.1/../../../../arm-none-eabi/lib/thumb/v8-m.main+fp/hard/libc_nano.a(libc_a-lseekr.o)
 .ARM.attributes
                0x00000000       0x38 /home/brusli/.mcuxpressotools/arm-gnu-toolchain-14.2.rel1-x86_64-arm-none-eabi/bin/../lib/gcc/arm-none-eabi/14.2.1/../../../../arm-none-eabi/lib/thumb/v8-m.main+fp/hard/libc_nano.a(libc_a-lseekr.o)
 .text          0x00000000        0x0 /home/brusli/.mcuxpressotools/arm-gnu-toolchain-14.2.rel1-x86_64-arm-none-eabi/bin/../lib/gcc/arm-none-eabi/14.2.1/../../../../arm-none-eabi/lib/thumb/v8-m.main+fp/hard/libc_nano.a(libc_a-readr.o)
 .data          0x00000000        0x0 /home/brusli/.mcuxpressotools/arm-gnu-toolchain-14.2.rel1-x86_64-arm-none-eabi/bin/../lib/gcc/arm-none-eabi/14.2.1/../../../../arm-none-eabi/lib/thumb/v8-m.main+fp/hard/libc_nano.a(libc_a-readr.o)
 .bss           0x00000000        0x0 /home/brusli/.mcuxpressotools/arm-gnu-toolchain-14.2.rel1-x86_64-arm-none-eabi/bin/../lib/gcc/arm-none-eabi/14.2.1/../../../../arm-none-eabi/lib/thumb/v8-m.main+fp/hard/libc_nano.a(libc_a-readr.o)
 .text._read_r  0x00000000       0x24 /home/brusli/.mcuxpressotools/arm-gnu-toolchain-14.2.rel1-x86_64-arm-none-eabi/bin/../lib/gcc/arm-none-eabi/14.2.1/../../../../arm-none-eabi/lib/thumb/v8-m.main+fp/hard/libc_nano.a(libc_a-readr.o)
 .debug_frame   0x00000000       0x2c /home/brusli/.mcuxpressotools/arm-gnu-toolchain-14.2.rel1-x86_64-arm-none-eabi/bin/../lib/gcc/arm-none-eabi/14.2.1/../../../../arm-none-eabi/lib/thumb/v8-m.main+fp/hard/libc_nano.a(libc_a-readr.o)
 .ARM.attributes
                0x00000000       0x38 /home/brusli/.mcuxpressotools/arm-gnu-toolchain-14.2.rel1-x86_64-arm-none-eabi/bin/../lib/gcc/arm-none-eabi/14.2.1/../../../../arm-none-eabi/lib/thumb/v8-m.main+fp/hard/libc_nano.a(libc_a-readr.o)
 .text          0x00000000        0x0 /home/brusli/.mcuxpressotools/arm-gnu-toolchain-14.2.rel1-x86_64-arm-none-eabi/bin/../lib/gcc/arm-none-eabi/14.2.1/../../../../arm-none-eabi/lib/thumb/v8-m.main+fp/hard/libc_nano.a(libc_a-sbrkr.o)
 .data          0x00000000        0x0 /home/brusli/.mcuxpressotools/arm-gnu-toolchain-14.2.rel1-x86_64-arm-none-eabi/bin/../lib/gcc/arm-none-eabi/14.2.1/../../../../arm-none-eabi/lib/thumb/v8-m.main+fp/hard/libc_nano.a(libc_a-sbrkr.o)
 .bss           0x00000000        0x0 /home/brusli/.mcuxpressotools/arm-gnu-toolchain-14.2.rel1-x86_64-arm-none-eabi/bin/../lib/gcc/arm-none-eabi/14.2.1/../../../../arm-none-eabi/lib/thumb/v8-m.main+fp/hard/libc_nano.a(libc_a-sbrkr.o)
 .text          0x00000000        0x0 /home/brusli/.mcuxpressotools/arm-gnu-toolchain-14.2.rel1-x86_64-arm-none-eabi/bin/../lib/gcc/arm-none-eabi/14.2.1/../../../../arm-none-eabi/lib/thumb/v8-m.main+fp/hard/libc_nano.a(libc_a-writer.o)
 .data          0x00000000        0x0 /home/brusli/.mcuxpressotools/arm-gnu-toolchain-14.2.rel1-x86_64-arm-none-eabi/bin/../lib/gcc/arm-none-eabi/14.2.1/../../../../arm-none-eabi/lib/thumb/v8-m.main+fp/hard/libc_nano.a(libc_a-writer.o)
 .bss           0x00000000        0x0 /home/brusli/.mcuxpressotools/arm-gnu-toolchain-14.2.rel1-x86_64-arm-none-eabi/bin/../lib/gcc/arm-none-eabi/14.2.1/../../../../arm-none-eabi/lib/thumb/v8-m.main+fp/hard/libc_nano.a(libc_a-writer.o)
 .text._write_r
                0x00000000       0x24 /home/brusli/.mcuxpressotools/arm-gnu-toolchain-14.2.rel1-x86_64-arm-none-eabi/bin/../lib/gcc/arm-none-eabi/14.2.1/../../../../arm-none-eabi/lib/thumb/v8-m.main+fp/hard/libc_nano.a(libc_a-writer.o)
 .debug_frame   0x00000000       0x2c /home/brusli/.mcuxpressotools/arm-gnu-toolchain-14.2.rel1-x86_64-arm-none-eabi/bin/../lib/gcc/arm-none-eabi/14.2.1/../../../../arm-none-eabi/lib/thumb/v8-m.main+fp/hard/libc_nano.a(libc_a-writer.o)
 .ARM.attributes
                0x00000000       0x38 /home/brusli/.mcuxpressotools/arm-gnu-toolchain-14.2.rel1-x86_64-arm-none-eabi/bin/../lib/gcc/arm-none-eabi/14.2.1/../../../../arm-none-eabi/lib/thumb/v8-m.main+fp/hard/libc_nano.a(libc_a-writer.o)
 .text          0x00000000        0x0 /home/brusli/.mcuxpressotools/arm-gnu-toolchain-14.2.rel1-x86_64-arm-none-eabi/bin/../lib/gcc/arm-none-eabi/14.2.1/../../../../arm-none-eabi/lib/thumb/v8-m.main+fp/hard/libc_nano.a(libc_a-errno.o)
 .data          0x00000000        0x0 /home/brusli/.mcuxpressotools/arm-gnu-toolchain-14.2.rel1-x86_64-arm-none-eabi/bin/../lib/gcc/arm-none-eabi/14.2.1/../../../../arm-none-eabi/lib/thumb/v8-m.main+fp/hard/libc_nano.a(libc_a-errno.o)
 .bss           0x00000000        0x0 /home/brusli/.mcuxpressotools/arm-gnu-toolchain-14.2.rel1-x86_64-arm-none-eabi/bin/../lib/gcc/arm-none-eabi/14.2.1/../../../../arm-none-eabi/lib/thumb/v8-m.main+fp/hard/libc_nano.a(libc_a-errno.o)
 .text          0x00000000        0x0 /home/brusli/.mcuxpressotools/arm-gnu-toolchain-14.2.rel1-x86_64-arm-none-eabi/bin/../lib/gcc/arm-none-eabi/14.2.1/../../../../arm-none-eabi/lib/thumb/v8-m.main+fp/hard/libc_nano.a(libc_a-init.o)
 .data          0x00000000        0x0 /home/brusli/.mcuxpressotools/arm-gnu-toolchain-14.2.rel1-x86_64-arm-none-eabi/bin/../lib/gcc/arm-none-eabi/14.2.1/../../../../arm-none-eabi/lib/thumb/v8-m.main+fp/hard/libc_nano.a(libc_a-init.o)
 .bss           0x00000000        0x0 /home/brusli/.mcuxpressotools/arm-gnu-toolchain-14.2.rel1-x86_64-arm-none-eabi/bin/../lib/gcc/arm-none-eabi/14.2.1/../../../../arm-none-eabi/lib/thumb/v8-m.main+fp/hard/libc_nano.a(libc_a-init.o)
 .text          0x00000000        0x0 /home/brusli/.mcuxpressotools/arm-gnu-toolchain-14.2.rel1-x86_64-arm-none-eabi/bin/../lib/gcc/arm-none-eabi/14.2.1/../../../../arm-none-eabi/lib/thumb/v8-m.main+fp/hard/libc_nano.a(libc_a-lock.o)
 .data          0x00000000        0x0 /home/brusli/.mcuxpressotools/arm-gnu-toolchain-14.2.rel1-x86_64-arm-none-eabi/bin/../lib/gcc/arm-none-eabi/14.2.1/../../../../arm-none-eabi/lib/thumb/v8-m.main+fp/hard/libc_nano.a(libc_a-lock.o)
 .bss           0x00000000        0x0 /home/brusli/.mcuxpressotools/arm-gnu-toolchain-14.2.rel1-x86_64-arm-none-eabi/bin/../lib/gcc/arm-none-eabi/14.2.1/../../../../arm-none-eabi/lib/thumb/v8-m.main+fp/hard/libc_nano.a(libc_a-lock.o)
 .text.__retarget_lock_init
                0x00000000        0x2 /home/brusli/.mcuxpressotools/arm-gnu-toolchain-14.2.rel1-x86_64-arm-none-eabi/bin/../lib/gcc/arm-none-eabi/14.2.1/../../../../arm-none-eabi/lib/thumb/v8-m.main+fp/hard/libc_nano.a(libc_a-lock.o)
 .text.__retarget_lock_init_recursive
                0x00000000        0x2 /home/brusli/.mcuxpressotools/arm-gnu-toolchain-14.2.rel1-x86_64-arm-none-eabi/bin/../lib/gcc/arm-none-eabi/14.2.1/../../../../arm-none-eabi/lib/thumb/v8-m.main+fp/hard/libc_nano.a(libc_a-lock.o)
 .text.__retarget_lock_close
                0x00000000        0x2 /home/brusli/.mcuxpressotools/arm-gnu-toolchain-14.2.rel1-x86_64-arm-none-eabi/bin/../lib/gcc/arm-none-eabi/14.2.1/../../../../arm-none-eabi/lib/thumb/v8-m.main+fp/hard/libc_nano.a(libc_a-lock.o)
 .text.__retarget_lock_close_recursive
                0x00000000        0x2 /home/brusli/.mcuxpressotools/arm-gnu-toolchain-14.2.rel1-x86_64-arm-none-eabi/bin/../lib/gcc/arm-none-eabi/14.2.1/../../../../arm-none-eabi/lib/thumb/v8-m.main+fp/hard/libc_nano.a(libc_a-lock.o)
 .text.__retarget_lock_acquire
                0x00000000        0x2 /home/brusli/.mcuxpressotools/arm-gnu-toolchain-14.2.rel1-x86_64-arm-none-eabi/bin/../lib/gcc/arm-none-eabi/14.2.1/../../../../arm-none-eabi/lib/thumb/v8-m.main+fp/hard/libc_nano.a(libc_a-lock.o)
 .text.__retarget_lock_try_acquire
                0x00000000        0x4 /home/brusli/.mcuxpressotools/arm-gnu-toolchain-14.2.rel1-x86_64-arm-none-eabi/bin/../lib/gcc/arm-none-eabi/14.2.1/../../../../arm-none-eabi/lib/thumb/v8-m.main+fp/hard/libc_nano.a(libc_a-lock.o)
 .text.__retarget_lock_try_acquire_recursive
                0x00000000        0x4 /home/brusli/.mcuxpressotools/arm-gnu-toolchain-14.2.rel1-x86_64-arm-none-eabi/bin/../lib/gcc/arm-none-eabi/14.2.1/../../../../arm-none-eabi/lib/thumb/v8-m.main+fp/hard/libc_nano.a(libc_a-lock.o)
 .text.__retarget_lock_release
                0x00000000        0x2 /home/brusli/.mcuxpressotools/arm-gnu-toolchain-14.2.rel1-x86_64-arm-none-eabi/bin/../lib/gcc/arm-none-eabi/14.2.1/../../../../arm-none-eabi/lib/thumb/v8-m.main+fp/hard/libc_nano.a(libc_a-lock.o)
 .bss.__lock___arc4random_mutex
                0x00000000        0x1 /home/brusli/.mcuxpressotools/arm-gnu-toolchain-14.2.rel1-x86_64-arm-none-eabi/bin/../lib/gcc/arm-none-eabi/14.2.1/../../../../arm-none-eabi/lib/thumb/v8-m.main+fp/hard/libc_nano.a(libc_a-lock.o)
 .bss.__lock___dd_hash_mutex
                0x00000000        0x1 /home/brusli/.mcuxpressotools/arm-gnu-toolchain-14.2.rel1-x86_64-arm-none-eabi/bin/../lib/gcc/arm-none-eabi/14.2.1/../../../../arm-none-eabi/lib/thumb/v8-m.main+fp/hard/libc_nano.a(libc_a-lock.o)
 .bss.__lock___tz_mutex
                0x00000000        0x1 /home/brusli/.mcuxpressotools/arm-gnu-toolchain-14.2.rel1-x86_64-arm-none-eabi/bin/../lib/gcc/arm-none-eabi/14.2.1/../../../../arm-none-eabi/lib/thumb/v8-m.main+fp/hard/libc_nano.a(libc_a-lock.o)
 .bss.__lock___env_recursive_mutex
                0x00000000        0x1 /home/brusli/.mcuxpressotools/arm-gnu-toolchain-14.2.rel1-x86_64-arm-none-eabi/bin/../lib/gcc/arm-none-eabi/14.2.1/../../../../arm-none-eabi/lib/thumb/v8-m.main+fp/hard/libc_nano.a(libc_a-lock.o)
 .bss.__lock___at_quick_exit_mutex
                0x00000000        0x1 /home/brusli/.mcuxpressotools/arm-gnu-toolchain-14.2.rel1-x86_64-arm-none-eabi/bin/../lib/gcc/arm-none-eabi/14.2.1/../../../../arm-none-eabi/lib/thumb/v8-m.main+fp/hard/libc_nano.a(libc_a-lock.o)
 .bss.__lock___atexit_recursive_mutex
                0x00000000        0x1 /home/brusli/.mcuxpressotools/arm-gnu-toolchain-14.2.rel1-x86_64-arm-none-eabi/bin/../lib/gcc/arm-none-eabi/14.2.1/../../../../arm-none-eabi/lib/thumb/v8-m.main+fp/hard/libc_nano.a(libc_a-lock.o)
 .bss.__lock___sfp_recursive_mutex
                0x00000000        0x1 /home/brusli/.mcuxpressotools/arm-gnu-toolchain-14.2.rel1-x86_64-arm-none-eabi/bin/../lib/gcc/arm-none-eabi/14.2.1/../../../../arm-none-eabi/lib/thumb/v8-m.main+fp/hard/libc_nano.a(libc_a-lock.o)
 .data          0x00000000        0x0 /home/brusli/.mcuxpressotools/arm-gnu-toolchain-14.2.rel1-x86_64-arm-none-eabi/bin/../lib/gcc/arm-none-eabi/14.2.1/../../../../arm-none-eabi/lib/thumb/v8-m.main+fp/hard/libc_nano.a(libc_a-strlen.o)
 .bss           0x00000000        0x0 /home/brusli/.mcuxpressotools/arm-gnu-toolchain-14.2.rel1-x86_64-arm-none-eabi/bin/../lib/gcc/arm-none-eabi/14.2.1/../../../../arm-none-eabi/lib/thumb/v8-m.main+fp/hard/libc_nano.a(libc_a-strlen.o)
 .ARM.extab     0x00000000        0x0 /home/brusli/.mcuxpressotools/arm-gnu-toolchain-14.2.rel1-x86_64-arm-none-eabi/bin/../lib/gcc/arm-none-eabi/14.2.1/../../../../arm-none-eabi/lib/thumb/v8-m.main+fp/hard/libc_nano.a(libc_a-strlen.o)
 .text          0x00000000        0x0 /home/brusli/.mcuxpressotools/arm-gnu-toolchain-14.2.rel1-x86_64-arm-none-eabi/bin/../lib/gcc/arm-none-eabi/14.2.1/../../../../arm-none-eabi/lib/thumb/v8-m.main+fp/hard/libc_nano.a(libc_a-freer.o)
 .data          0x00000000        0x0 /home/brusli/.mcuxpressotools/arm-gnu-toolchain-14.2.rel1-x86_64-arm-none-eabi/bin/../lib/gcc/arm-none-eabi/14.2.1/../../../../arm-none-eabi/lib/thumb/v8-m.main+fp/hard/libc_nano.a(libc_a-freer.o)
 .bss           0x00000000        0x0 /home/brusli/.mcuxpressotools/arm-gnu-toolchain-14.2.rel1-x86_64-arm-none-eabi/bin/../lib/gcc/arm-none-eabi/14.2.1/../../../../arm-none-eabi/lib/thumb/v8-m.main+fp/hard/libc_nano.a(libc_a-freer.o)
 .text          0x00000000        0x0 /home/brusli/.mcuxpressotools/arm-gnu-toolchain-14.2.rel1-x86_64-arm-none-eabi/bin/../lib/gcc/arm-none-eabi/14.2.1/../../../../arm-none-eabi/lib/thumb/v8-m.main+fp/hard/libc_nano.a(libc_a-nano-svfprintf.o)
 .data          0x00000000        0x0 /home/brusli/.mcuxpressotools/arm-gnu-toolchain-14.2.rel1-x86_64-arm-none-eabi/bin/../lib/gcc/arm-none-eabi/14.2.1/../../../../arm-none-eabi/lib/thumb/v8-m.main+fp/hard/libc_nano.a(libc_a-nano-svfprintf.o)
 .bss           0x00000000        0x0 /home/brusli/.mcuxpressotools/arm-gnu-toolchain-14.2.rel1-x86_64-arm-none-eabi/bin/../lib/gcc/arm-none-eabi/14.2.1/../../../../arm-none-eabi/lib/thumb/v8-m.main+fp/hard/libc_nano.a(libc_a-nano-svfprintf.o)
 .text.__ssprint_r
                0x00000000       0xf4 /home/brusli/.mcuxpressotools/arm-gnu-toolchain-14.2.rel1-x86_64-arm-none-eabi/bin/../lib/gcc/arm-none-eabi/14.2.1/../../../../arm-none-eabi/lib/thumb/v8-m.main+fp/hard/libc_nano.a(libc_a-nano-svfprintf.o)
 .text          0x00000000        0x0 /home/brusli/.mcuxpressotools/arm-gnu-toolchain-14.2.rel1-x86_64-arm-none-eabi/bin/../lib/gcc/arm-none-eabi/14.2.1/../../../../arm-none-eabi/lib/thumb/v8-m.main+fp/hard/libc_nano.a(libc_a-nano-vfprintf_i.o)
 .data          0x00000000        0x0 /home/brusli/.mcuxpressotools/arm-gnu-toolchain-14.2.rel1-x86_64-arm-none-eabi/bin/../lib/gcc/arm-none-eabi/14.2.1/../../../../arm-none-eabi/lib/thumb/v8-m.main+fp/hard/libc_nano.a(libc_a-nano-vfprintf_i.o)
 .bss           0x00000000        0x0 /home/brusli/.mcuxpressotools/arm-gnu-toolchain-14.2.rel1-x86_64-arm-none-eabi/bin/../lib/gcc/arm-none-eabi/14.2.1/../../../../arm-none-eabi/lib/thumb/v8-m.main+fp/hard/libc_nano.a(libc_a-nano-vfprintf_i.o)
 .text          0x00000000        0x0 /home/brusli/.mcuxpressotools/arm-gnu-toolchain-14.2.rel1-x86_64-arm-none-eabi/bin/../lib/gcc/arm-none-eabi/14.2.1/../../../../arm-none-eabi/lib/thumb/v8-m.main+fp/hard/libc_nano.a(libc_a-fflush.o)
 .data          0x00000000        0x0 /home/brusli/.mcuxpressotools/arm-gnu-toolchain-14.2.rel1-x86_64-arm-none-eabi/bin/../lib/gcc/arm-none-eabi/14.2.1/../../../../arm-none-eabi/lib/thumb/v8-m.main+fp/hard/libc_nano.a(libc_a-fflush.o)
 .bss           0x00000000        0x0 /home/brusli/.mcuxpressotools/arm-gnu-toolchain-14.2.rel1-x86_64-arm-none-eabi/bin/../lib/gcc/arm-none-eabi/14.2.1/../../../../arm-none-eabi/lib/thumb/v8-m.main+fp/hard/libc_nano.a(libc_a-fflush.o)
 .text.__sflush_r
                0x00000000      0x100 /home/brusli/.mcuxpressotools/arm-gnu-toolchain-14.2.rel1-x86_64-arm-none-eabi/bin/../lib/gcc/arm-none-eabi/14.2.1/../../../../arm-none-eabi/lib/thumb/v8-m.main+fp/hard/libc_nano.a(libc_a-fflush.o)
 .text._fflush_r
                0x00000000       0x50 /home/brusli/.mcuxpressotools/arm-gnu-toolchain-14.2.rel1-x86_64-arm-none-eabi/bin/../lib/gcc/arm-none-eabi/14.2.1/../../../../arm-none-eabi/lib/thumb/v8-m.main+fp/hard/libc_nano.a(libc_a-fflush.o)
 .text.fflush   0x00000000       0x28 /home/brusli/.mcuxpressotools/arm-gnu-toolchain-14.2.rel1-x86_64-arm-none-eabi/bin/../lib/gcc/arm-none-eabi/14.2.1/../../../../arm-none-eabi/lib/thumb/v8-m.main+fp/hard/libc_nano.a(libc_a-fflush.o)
 .debug_frame   0x00000000       0x5c /home/brusli/.mcuxpressotools/arm-gnu-toolchain-14.2.rel1-x86_64-arm-none-eabi/bin/../lib/gcc/arm-none-eabi/14.2.1/../../../../arm-none-eabi/lib/thumb/v8-m.main+fp/hard/libc_nano.a(libc_a-fflush.o)
 .ARM.attributes
                0x00000000       0x38 /home/brusli/.mcuxpressotools/arm-gnu-toolchain-14.2.rel1-x86_64-arm-none-eabi/bin/../lib/gcc/arm-none-eabi/14.2.1/../../../../arm-none-eabi/lib/thumb/v8-m.main+fp/hard/libc_nano.a(libc_a-fflush.o)
 .text          0x00000000        0x0 /home/brusli/.mcuxpressotools/arm-gnu-toolchain-14.2.rel1-x86_64-arm-none-eabi/bin/../lib/gcc/arm-none-eabi/14.2.1/../../../../arm-none-eabi/lib/thumb/v8-m.main+fp/hard/libc_nano.a(libc_a-memmove.o)
 .data          0x00000000        0x0 /home/brusli/.mcuxpressotools/arm-gnu-toolchain-14.2.rel1-x86_64-arm-none-eabi/bin/../lib/gcc/arm-none-eabi/14.2.1/../../../../arm-none-eabi/lib/thumb/v8-m.main+fp/hard/libc_nano.a(libc_a-memmove.o)
 .bss           0x00000000        0x0 /home/brusli/.mcuxpressotools/arm-gnu-toolchain-14.2.rel1-x86_64-arm-none-eabi/bin/../lib/gcc/arm-none-eabi/14.2.1/../../../../arm-none-eabi/lib/thumb/v8-m.main+fp/hard/libc_nano.a(libc_a-memmove.o)
 .text          0x00000000        0x0 /home/brusli/.mcuxpressotools/arm-gnu-toolchain-14.2.rel1-x86_64-arm-none-eabi/bin/../lib/gcc/arm-none-eabi/14.2.1/../../../../arm-none-eabi/lib/thumb/v8-m.main+fp/hard/libc_nano.a(libc_a-memchr-stub.o)
 .data          0x00000000        0x0 /home/brusli/.mcuxpressotools/arm-gnu-toolchain-14.2.rel1-x86_64-arm-none-eabi/bin/../lib/gcc/arm-none-eabi/14.2.1/../../../../arm-none-eabi/lib/thumb/v8-m.main+fp/hard/libc_nano.a(libc_a-memchr-stub.o)
 .bss           0x00000000        0x0 /home/brusli/.mcuxpressotools/arm-gnu-toolchain-14.2.rel1-x86_64-arm-none-eabi/bin/../lib/gcc/arm-none-eabi/14.2.1/../../../../arm-none-eabi/lib/thumb/v8-m.main+fp/hard/libc_nano.a(libc_a-memchr-stub.o)
 .text          0x00000000        0x0 /home/brusli/.mcuxpressotools/arm-gnu-toolchain-14.2.rel1-x86_64-arm-none-eabi/bin/../lib/gcc/arm-none-eabi/14.2.1/../../../../arm-none-eabi/lib/thumb/v8-m.main+fp/hard/libc_nano.a(libc_a-reallocr.o)
 .data          0x00000000        0x0 /home/brusli/.mcuxpressotools/arm-gnu-toolchain-14.2.rel1-x86_64-arm-none-eabi/bin/../lib/gcc/arm-none-eabi/14.2.1/../../../../arm-none-eabi/lib/thumb/v8-m.main+fp/hard/libc_nano.a(libc_a-reallocr.o)
 .bss           0x00000000        0x0 /home/brusli/.mcuxpressotools/arm-gnu-toolchain-14.2.rel1-x86_64-arm-none-eabi/bin/../lib/gcc/arm-none-eabi/14.2.1/../../../../arm-none-eabi/lib/thumb/v8-m.main+fp/hard/libc_nano.a(libc_a-reallocr.o)
 .text          0x00000000        0x0 /home/brusli/.mcuxpressotools/arm-gnu-toolchain-14.2.rel1-x86_64-arm-none-eabi/bin/../lib/gcc/arm-none-eabi/14.2.1/../../../../arm-none-eabi/lib/thumb/v8-m.main+fp/hard/libc_nano.a(libc_a-msizer.o)
 .data          0x00000000        0x0 /home/brusli/.mcuxpressotools/arm-gnu-toolchain-14.2.rel1-x86_64-arm-none-eabi/bin/../lib/gcc/arm-none-eabi/14.2.1/../../../../arm-none-eabi/lib/thumb/v8-m.main+fp/hard/libc_nano.a(libc_a-msizer.o)
 .bss           0x00000000        0x0 /home/brusli/.mcuxpressotools/arm-gnu-toolchain-14.2.rel1-x86_64-arm-none-eabi/bin/../lib/gcc/arm-none-eabi/14.2.1/../../../../arm-none-eabi/lib/thumb/v8-m.main+fp/hard/libc_nano.a(libc_a-msizer.o)
 .text          0x00000000        0x0 /home/brusli/.mcuxpressotools/arm-gnu-toolchain-14.2.rel1-x86_64-arm-none-eabi/bin/../lib/gcc/arm-none-eabi/14.2.1/../../../../arm-none-eabi/lib/thumb/v8-m.main+fp/hard/libcr_newlib_nohost.a(_exit.o)
 .data          0x00000000        0x0 /home/brusli/.mcuxpressotools/arm-gnu-toolchain-14.2.rel1-x86_64-arm-none-eabi/bin/../lib/gcc/arm-none-eabi/14.2.1/../../../../arm-none-eabi/lib/thumb/v8-m.main+fp/hard/libcr_newlib_nohost.a(_exit.o)
 .bss           0x00000000        0x0 /home/brusli/.mcuxpressotools/arm-gnu-toolchain-14.2.rel1-x86_64-arm-none-eabi/bin/../lib/gcc/arm-none-eabi/14.2.1/../../../../arm-none-eabi/lib/thumb/v8-m.main+fp/hard/libcr_newlib_nohost.a(_exit.o)
 .text          0x00000000        0x0 /home/brusli/.mcuxpressotools/arm-gnu-toolchain-14.2.rel1-x86_64-arm-none-eabi/bin/../lib/gcc/arm-none-eabi/14.2.1/thumb/v8-m.main+fp/hard/crtend.o
 .data          0x00000000        0x0 /home/brusli/.mcuxpressotools/arm-gnu-toolchain-14.2.rel1-x86_64-arm-none-eabi/bin/../lib/gcc/arm-none-eabi/14.2.1/thumb/v8-m.main+fp/hard/crtend.o
 .bss           0x00000000        0x0 /home/brusli/.mcuxpressotools/arm-gnu-toolchain-14.2.rel1-x86_64-arm-none-eabi/bin/../lib/gcc/arm-none-eabi/14.2.1/thumb/v8-m.main+fp/hard/crtend.o
 .rodata.all_implied_fbits
                0x00000000       0x24 /home/brusli/.mcuxpressotools/arm-gnu-toolchain-14.2.rel1-x86_64-arm-none-eabi/bin/../lib/gcc/arm-none-eabi/14.2.1/thumb/v8-m.main+fp/hard/crtend.o
 .eh_frame      0x00000000        0x4 /home/brusli/.mcuxpressotools/arm-gnu-toolchain-14.2.rel1-x86_64-arm-none-eabi/bin/../lib/gcc/arm-none-eabi/14.2.1/thumb/v8-m.main+fp/hard/crtend.o
 .text          0x00000000        0x0 /home/brusli/.mcuxpressotools/arm-gnu-toolchain-14.2.rel1-x86_64-arm-none-eabi/bin/../lib/gcc/arm-none-eabi/14.2.1/thumb/v8-m.main+fp/hard/crtn.o
 .data          0x00000000        0x0 /home/brusli/.mcuxpressotools/arm-gnu-toolchain-14.2.rel1-x86_64-arm-none-eabi/bin/../lib/gcc/arm-none-eabi/14.2.1/thumb/v8-m.main+fp/hard/crtn.o
 .bss           0x00000000        0x0 /home/brusli/.mcuxpressotools/arm-gnu-toolchain-14.2.rel1-x86_64-arm-none-eabi/bin/../lib/gcc/arm-none-eabi/14.2.1/thumb/v8-m.main+fp/hard/crtn.o

Memory Configuration

Name             Origin             Length             Attributes
m_interrupts     0x00000000         0x00000400         xr
m_text           0x00000400         0x000bfc00         xr
m_core1_image    0x000c0000         0x00040000         xr
m_data           0x20000000         0x0004e000         rw
rpmsg_sh_mem     0x2004e000         0x00000000         rw
m_flash1         0x00100000         0x00100000         xr
m_sramx          0x04000000         0x00018000         rw
m_flash_config   0x80000400         0x00000400         xr
m_usb_sram       0x400ba000         0x00001000         rw
*default*        0x00000000         0xffffffff

Linker script and memory map

LOAD /home/brusli/.mcuxpressotools/arm-gnu-toolchain-14.2.rel1-x86_64-arm-none-eabi/bin/../lib/gcc/arm-none-eabi/14.2.1/thumb/v8-m.main+fp/hard/crti.o
LOAD /home/brusli/.mcuxpressotools/arm-gnu-toolchain-14.2.rel1-x86_64-arm-none-eabi/bin/../lib/gcc/arm-none-eabi/14.2.1/thumb/v8-m.main+fp/hard/crtbegin.o
LOAD /home/brusli/.mcuxpressotools/arm-gnu-toolchain-14.2.rel1-x86_64-arm-none-eabi/bin/../lib/gcc/arm-none-eabi/14.2.1/../../../../arm-none-eabi/lib/thumb/v8-m.main+fp/hard/crt0.o
LOAD CMakeFiles/led_blinky_peripheral_cm33_core0.elf.dir/home/brusli/Documents/Projects/NXP/main/MCX_LAB_6_OLED/MCX_LAB_6_OLED/led_blinky.c.obj
LOAD CMakeFiles/led_blinky_peripheral_cm33_core0.elf.dir/home/brusli/Documents/Projects/NXP/main/MCX_LAB_6_OLED/MCX_LAB_6_OLED/peripherals.c.obj
LOAD CMakeFiles/led_blinky_peripheral_cm33_core0.elf.dir/home/brusli/Documents/Projects/NXP/main/MCX_LAB_6_OLED/MCX_LAB_6_OLED/board.c.obj
LOAD CMakeFiles/led_blinky_peripheral_cm33_core0.elf.dir/home/brusli/Documents/Projects/NXP/main/MCX_LAB_6_OLED/MCX_LAB_6_OLED/clock_config.c.obj
LOAD CMakeFiles/led_blinky_peripheral_cm33_core0.elf.dir/home/brusli/Documents/Projects/NXP/main/MCX_LAB_6_OLED/MCX_LAB_6_OLED/pin_mux.c.obj
LOAD CMakeFiles/led_blinky_peripheral_cm33_core0.elf.dir/home/brusli/Documents/Projects/NXP/main/MCX_LAB_6_OLED/MCX_LAB_6_OLED/hardware_init.c.obj
LOAD CMakeFiles/led_blinky_peripheral_cm33_core0.elf.dir/home/brusli/Documents/Projects/NXP/main/MCX_LAB_6_OLED/MCX_LAB_6_OLED/oled.c.obj
LOAD CMakeFiles/led_blinky_peripheral_cm33_core0.elf.dir/home/brusli/Documents/Projects/NXP/main/sdks/main_testing_sdk/components/uart/fsl_adapter_lpuart.c.obj
LOAD CMakeFiles/led_blinky_peripheral_cm33_core0.elf.dir/home/brusli/Documents/Projects/NXP/main/sdks/main_testing_sdk/devices/MCXN947/gcc/startup_MCXN947_cm33_core0.S.obj
LOAD CMakeFiles/led_blinky_peripheral_cm33_core0.elf.dir/home/brusli/Documents/Projects/NXP/main/sdks/main_testing_sdk/devices/MCXN947/system_MCXN947_cm33_core0.c.obj
LOAD CMakeFiles/led_blinky_peripheral_cm33_core0.elf.dir/home/brusli/Documents/Projects/NXP/main/sdks/main_testing_sdk/devices/MCXN947/drivers/fsl_clock.c.obj
LOAD CMakeFiles/led_blinky_peripheral_cm33_core0.elf.dir/home/brusli/Documents/Projects/NXP/main/sdks/main_testing_sdk/devices/MCXN947/drivers/fsl_common.c.obj
LOAD CMakeFiles/led_blinky_peripheral_cm33_core0.elf.dir/home/brusli/Documents/Projects/NXP/main/sdks/main_testing_sdk/devices/MCXN947/drivers/fsl_common_arm.c.obj
LOAD CMakeFiles/led_blinky_peripheral_cm33_core0.elf.dir/home/brusli/Documents/Projects/NXP/main/sdks/main_testing_sdk/devices/MCXN947/drivers/fsl_ctimer.c.obj
LOAD CMakeFiles/led_blinky_peripheral_cm33_core0.elf.dir/home/brusli/Documents/Projects/NXP/main/sdks/main_testing_sdk/devices/MCXN947/drivers/fsl_gpio.c.obj
LOAD CMakeFiles/led_blinky_peripheral_cm33_core0.elf.dir/home/brusli/Documents/Projects/NXP/main/sdks/main_testing_sdk/devices/MCXN947/drivers/fsl_lpadc.c.obj
LOAD CMakeFiles/led_blinky_peripheral_cm33_core0.elf.dir/home/brusli/Documents/Projects/NXP/main/sdks/main_testing_sdk/devices/MCXN947/drivers/fsl_lpflexcomm.c.obj
LOAD CMakeFiles/led_blinky_peripheral_cm33_core0.elf.dir/home/brusli/Documents/Projects/NXP/main/sdks/main_testing_sdk/devices/MCXN947/drivers/fsl_lpi2c.c.obj
LOAD CMakeFiles/led_blinky_peripheral_cm33_core0.elf.dir/home/brusli/Documents/Projects/NXP/main/sdks/main_testing_sdk/devices/MCXN947/drivers/fsl_lpuart.c.obj
LOAD CMakeFiles/led_blinky_peripheral_cm33_core0.elf.dir/home/brusli/Documents/Projects/NXP/main/sdks/main_testing_sdk/devices/MCXN947/drivers/fsl_spc.c.obj
LOAD CMakeFiles/led_blinky_peripheral_cm33_core0.elf.dir/home/brusli/Documents/Projects/NXP/main/sdks/main_testing_sdk/devices/MCXN947/drivers/fsl_reset.c.obj
LOAD CMakeFiles/led_blinky_peripheral_cm33_core0.elf.dir/home/brusli/Documents/Projects/NXP/main/sdks/main_testing_sdk/devices/MCXN947/drivers/fsl_vref.c.obj
LOAD CMakeFiles/led_blinky_peripheral_cm33_core0.elf.dir/home/brusli/Documents/Projects/NXP/main/sdks/main_testing_sdk/devices/MCXN947/utilities/fsl_syscall_stub.c.obj
LOAD CMakeFiles/led_blinky_peripheral_cm33_core0.elf.dir/home/brusli/Documents/Projects/NXP/main/sdks/main_testing_sdk/devices/MCXN947/utilities/fsl_sbrk.c.obj
LOAD CMakeFiles/led_blinky_peripheral_cm33_core0.elf.dir/home/brusli/Documents/Projects/NXP/main/sdks/main_testing_sdk/devices/MCXN947/utilities/fsl_memcpy.S.obj
LOAD CMakeFiles/led_blinky_peripheral_cm33_core0.elf.dir/home/brusli/Documents/Projects/NXP/main/sdks/main_testing_sdk/devices/MCXN947/utilities/debug_console_lite/fsl_assert.c.obj
LOAD CMakeFiles/led_blinky_peripheral_cm33_core0.elf.dir/home/brusli/Documents/Projects/NXP/main/sdks/main_testing_sdk/devices/MCXN947/utilities/debug_console_lite/fsl_debug_console.c.obj
LOAD CMakeFiles/led_blinky_peripheral_cm33_core0.elf.dir/home/brusli/Documents/Projects/NXP/main/sdks/main_testing_sdk/devices/MCXN947/utilities/str/fsl_str.c.obj
START GROUP
LOAD /home/brusli/.mcuxpressotools/arm-gnu-toolchain-14.2.rel1-x86_64-arm-none-eabi/bin/../lib/gcc/arm-none-eabi/14.2.1/thumb/v8-m.main+fp/hard/libgcc.a
LOAD /home/brusli/.mcuxpressotools/arm-gnu-toolchain-14.2.rel1-x86_64-arm-none-eabi/bin/../lib/gcc/arm-none-eabi/14.2.1/../../../../arm-none-eabi/lib/thumb/v8-m.main+fp/hard/libc_nano.a
LOAD /home/brusli/.mcuxpressotools/arm-gnu-toolchain-14.2.rel1-x86_64-arm-none-eabi/bin/../lib/gcc/arm-none-eabi/14.2.1/../../../../arm-none-eabi/lib/thumb/v8-m.main+fp/hard/libm.a
LOAD /home/brusli/.mcuxpressotools/arm-gnu-toolchain-14.2.rel1-x86_64-arm-none-eabi/bin/../lib/gcc/arm-none-eabi/14.2.1/../../../../arm-none-eabi/lib/thumb/v8-m.main+fp/hard/libcr_newlib_nohost.a
END GROUP
START GROUP
LOAD /home/brusli/.mcuxpressotools/arm-gnu-toolchain-14.2.rel1-x86_64-arm-none-eabi/bin/../lib/gcc/arm-none-eabi/14.2.1/thumb/v8-m.main+fp/hard/libgcc.a
LOAD /home/brusli/.mcuxpressotools/arm-gnu-toolchain-14.2.rel1-x86_64-arm-none-eabi/bin/../lib/gcc/arm-none-eabi/14.2.1/../../../../arm-none-eabi/lib/thumb/v8-m.main+fp/hard/libg_nano.a
LOAD /home/brusli/.mcuxpressotools/arm-gnu-toolchain-14.2.rel1-x86_64-arm-none-eabi/bin/../lib/gcc/arm-none-eabi/14.2.1/../../../../arm-none-eabi/lib/thumb/v8-m.main+fp/hard/libc_nano.a
END GROUP
START GROUP
LOAD /home/brusli/.mcuxpressotools/arm-gnu-toolchain-14.2.rel1-x86_64-arm-none-eabi/bin/../lib/gcc/arm-none-eabi/14.2.1/thumb/v8-m.main+fp/hard/libgcc.a
LOAD /home/brusli/.mcuxpressotools/arm-gnu-toolchain-14.2.rel1-x86_64-arm-none-eabi/bin/../lib/gcc/arm-none-eabi/14.2.1/../../../../arm-none-eabi/lib/thumb/v8-m.main+fp/hard/libc_nano.a
LOAD /home/brusli/.mcuxpressotools/arm-gnu-toolchain-14.2.rel1-x86_64-arm-none-eabi/bin/../lib/gcc/arm-none-eabi/14.2.1/../../../../arm-none-eabi/lib/thumb/v8-m.main+fp/hard/libnosys.a
END GROUP
START GROUP
LOAD /home/brusli/.mcuxpressotools/arm-gnu-toolchain-14.2.rel1-x86_64-arm-none-eabi/bin/../lib/gcc/arm-none-eabi/14.2.1/thumb/v8-m.main+fp/hard/libgcc.a
LOAD /home/brusli/.mcuxpressotools/arm-gnu-toolchain-14.2.rel1-x86_64-arm-none-eabi/bin/../lib/gcc/arm-none-eabi/14.2.1/../../../../arm-none-eabi/lib/thumb/v8-m.main+fp/hard/libc_nano.a
LOAD /home/brusli/.mcuxpressotools/arm-gnu-toolchain-14.2.rel1-x86_64-arm-none-eabi/bin/../lib/gcc/arm-none-eabi/14.2.1/../../../../arm-none-eabi/lib/thumb/v8-m.main+fp/hard/libnosys.a
END GROUP
LOAD /home/brusli/.mcuxpressotools/arm-gnu-toolchain-14.2.rel1-x86_64-arm-none-eabi/bin/../lib/gcc/arm-none-eabi/14.2.1/thumb/v8-m.main+fp/hard/crtend.o
LOAD /home/brusli/.mcuxpressotools/arm-gnu-toolchain-14.2.rel1-x86_64-arm-none-eabi/bin/../lib/gcc/arm-none-eabi/14.2.1/thumb/v8-m.main+fp/hard/crtn.o
                0x00000400                        HEAP_SIZE = DEFINED (__heap_size__)?__heap_size__:0x400
                0x00000800                        STACK_SIZE = DEFINED (__stack_size__)?__stack_size__:0x800
                0x00000000                        RPMSG_SHMEM_SIZE = DEFINED (__use_shmem__)?0x2000:0x0
                0x00000000                        TEXT_START = DEFINED (__qspi_xip__)?0x80001000:0x0
                0x000c0000                        TEXT_SIZE = DEFINED (__qspi_xip__)?0xffff000:0xc0000

.core1_code     0x000c0000        0x0
                0x000c0000                        . = ALIGN (0x4)
 *(.core1_code)
 *(.core1_code*)
                0x000c0000                        . = ALIGN (0x4)

.noinit_rpmsg_sh_mem
                0x2004e000        0x0
                0x2004e000                        __RPMSG_SH_MEM_START__ = .
 *(.noinit.$rpmsg_sh_mem*)
                0x2004e000                        . = ALIGN (0x4)
                0x2004e000                        __RPMSG_SH_MEM_END__ = .

.flash_config   0x80000400        0x0
                0x80000400                        . = ALIGN (0x4)
                0x80000400                        __FLASH_BASE = .
 *(.flexspi_fcb)
                0x80000400                        . = ALIGN (0x4)

.interrupts     0x00000000      0x2b0
                0x00000000                        . = ALIGN (0x4)
 *(.isr_vector)
 .isr_vector    0x00000000      0x2b0 CMakeFiles/led_blinky_peripheral_cm33_core0.elf.dir/home/brusli/Documents/Projects/NXP/main/sdks/main_testing_sdk/devices/MCXN947/gcc/startup_MCXN947_cm33_core0.S.obj
                0x00000000                __Vectors
                0x000002b0                        . = ALIGN (0x4)

.text           0x00000400     0x9594
                0x00000400                        . = ALIGN (0x4)
 *(.text)
 .text          0x00000400       0x7c /home/brusli/.mcuxpressotools/arm-gnu-toolchain-14.2.rel1-x86_64-arm-none-eabi/bin/../lib/gcc/arm-none-eabi/14.2.1/../../../../arm-none-eabi/lib/thumb/v8-m.main+fp/hard/crt0.o
                0x00000400                _stack_init
                0x00000408                _mainCRTStartup
                0x00000408                _start
 .text          0x0000047c      0x5a0 CMakeFiles/led_blinky_peripheral_cm33_core0.elf.dir/home/brusli/Documents/Projects/NXP/main/sdks/main_testing_sdk/devices/MCXN947/gcc/startup_MCXN947_cm33_core0.S.obj
                0x0000047c                Reset_Handler
                0x00000510                HSCMP1_DriverIRQHandler
                0x00000510                EDMA_1_CH5_DriverIRQHandler
                0x00000510                PINT0_DriverIRQHandler
                0x00000510                WWDT1_DriverIRQHandler
                0x00000510                DebugMon_Handler
                0x00000510                EDMA_1_CH13_DriverIRQHandler
                0x00000510                EMVSIM0_DriverIRQHandler
                0x00000510                I3C0_DriverIRQHandler
                0x00000510                USB0_FS_DriverIRQHandler
                0x00000510                PKC_ERR_DriverIRQHandler
                0x00000510                QDC1_HOME_DriverIRQHandler
                0x00000510                EDMA_0_CH5_DriverIRQHandler
                0x00000510                EDMA_0_CH14_DriverIRQHandler
                0x00000510                EDMA_1_CH0_DriverIRQHandler
                0x00000510                SCG_DriverIRQHandler
                0x00000510                CMC0_DriverIRQHandler
                0x00000510                EDMA_0_CH15_DriverIRQHandler
                0x00000510                LPTMR0_DriverIRQHandler
                0x00000510                EDMA_0_CH2_DriverIRQHandler
                0x00000510                FLEXPWM1_SUBMODULE1_DriverIRQHandler
                0x00000510                FLEXPWM0_SUBMODULE1_DriverIRQHandler
                0x00000510                EDMA_1_CH11_DriverIRQHandler
                0x00000510                FLEXPWM0_RELOAD_ERROR_DriverIRQHandler
                0x00000510                QDC0_HOME_DriverIRQHandler
                0x00000510                Reserved167_DriverIRQHandler
                0x00000510                EDMA_1_CH9_DriverIRQHandler
                0x00000510                SEC_VIO_DriverIRQHandler
                0x00000510                ERM_MULTI_BIT_ERROR_DriverIRQHandler
                0x00000510                GPIO31_DriverIRQHandler
                0x00000510                EWM0_DriverIRQHandler
                0x00000510                PKC_DriverIRQHandler
                0x00000510                EDMA_0_CH10_DriverIRQHandler
                0x00000510                USB1_HS_PHY_DriverIRQHandler
                0x00000510                QDC0_IDX_DriverIRQHandler
                0x00000510                ELS_DriverIRQHandler
                0x00000510                Reserved166_DriverIRQHandler
                0x00000510                EDMA_1_CH2_DriverIRQHandler
                0x00000510                ETHERNET_DriverIRQHandler
                0x00000510                QDC1_IDX_DriverIRQHandler
                0x00000510                EDMA_1_CH14_DriverIRQHandler
                0x00000510                FLEXPWM1_SUBMODULE3_DriverIRQHandler
                0x00000510                EDMA_1_CH7_DriverIRQHandler
                0x00000510                EDMA_1_CH6_DriverIRQHandler
                0x00000510                DAC1_DriverIRQHandler
                0x00000510                UsageFault_Handler
                0x00000510                ITRC0_DriverIRQHandler
                0x00000510                EDMA_0_CH9_DriverIRQHandler
                0x00000510                ETB0_DriverIRQHandler
                0x00000510                Freqme_DriverIRQHandler
                0x00000510                Reserved80_DriverIRQHandler
                0x00000510                DefaultISR
                0x00000510                ELS_ERR_DriverIRQHandler
                0x00000510                FLEXIO_DriverIRQHandler
                0x00000510                DAC0_DriverIRQHandler
                0x00000510                MRT0_DriverIRQHandler
                0x00000510                UTICK0_DriverIRQHandler
                0x00000510                FLEXPWM0_SUBMODULE2_DriverIRQHandler
                0x00000510                GPIO01_DriverIRQHandler
                0x00000510                EDMA_0_CH3_DriverIRQHandler
                0x00000510                WWDT0_DriverIRQHandler
                0x00000510                USDHC0_DriverIRQHandler
                0x00000510                GPIO00_DriverIRQHandler
                0x00000510                EDMA_0_CH4_DriverIRQHandler
                0x00000510                GPIO11_DriverIRQHandler
                0x00000510                BSP32_DriverIRQHandler
                0x00000510                FLEXPWM0_FAULT_DriverIRQHandler
                0x00000510                EDMA_1_CH1_DriverIRQHandler
                0x00000510                SAI1_DriverIRQHandler
                0x00000510                ERM_SINGLE_BIT_ERROR_DriverIRQHandler
                0x00000510                GPIO21_DriverIRQHandler
                0x00000510                FLEXPWM1_FAULT_DriverIRQHandler
                0x00000510                GPIO30_DriverIRQHandler
                0x00000510                QDC0_COMPARE_DriverIRQHandler
                0x00000510                SecureFault_Handler
                0x00000510                ADC1_DriverIRQHandler
                0x00000510                PQ_DriverIRQHandler
                0x00000510                ETHERNET_MACLP_DriverIRQHandler
                0x00000510                USB0_DCD_DriverIRQHandler
                0x00000510                MAILBOX_DriverIRQHandler
                0x00000510                EDMA_0_CH11_DriverIRQHandler
                0x00000510                WUU_DriverIRQHandler
                0x00000510                EDMA_0_CH6_DriverIRQHandler
                0x00000510                FLEXPWM1_SUBMODULE0_DriverIRQHandler
                0x00000510                CDOG1_DriverIRQHandler
                0x00000510                TSI_OUT_OF_SCAN_DriverIRQHandler
                0x00000510                EDMA_1_CH4_DriverIRQHandler
                0x00000510                PUF_DriverIRQHandler
                0x00000510                SPC_DriverIRQHandler
                0x00000510                RTC_DriverIRQHandler
                0x00000510                VBAT0_DriverIRQHandler
                0x00000510                Reserved65_DriverIRQHandler
                0x00000510                HSCMP2_DriverIRQHandler
                0x00000510                EDMA_0_CH0_DriverIRQHandler
                0x00000510                MemManage_Handler
                0x00000510                PDM_EVENT_DriverIRQHandler
                0x00000510                ETHERNET_PMT_DriverIRQHandler
                0x00000510                FLEXPWM1_RELOAD_ERROR_DriverIRQHandler
                0x00000510                FMU0_DriverIRQHandler
                0x00000510                QDC1_COMPARE_DriverIRQHandler
                0x00000510                EDMA_0_CH8_DriverIRQHandler
                0x00000510                LPTMR1_DriverIRQHandler
                0x00000510                CTI0_DriverIRQHandler
                0x00000510                GPIO40_DriverIRQHandler
                0x00000510                EDMA_1_CH3_DriverIRQHandler
                0x00000510                EDMA_1_CH15_DriverIRQHandler
                0x00000510                FLEXPWM1_SUBMODULE2_DriverIRQHandler
                0x00000510                GPIO20_DriverIRQHandler
                0x00000510                QDC1_WDG_SAB_DriverIRQHandler
                0x00000510                EDMA_1_CH8_DriverIRQHandler
                0x00000510                GDET_DriverIRQHandler
                0x00000510                PORT_EFT_DriverIRQHandler
                0x00000510                Reserved85_DriverIRQHandler
                0x00000510                Reserved81_DriverIRQHandler
                0x00000510                TSI_END_OF_SCAN_DriverIRQHandler
                0x00000510                FLEXPWM0_SUBMODULE3_DriverIRQHandler
                0x00000510                ADC0_DriverIRQHandler
                0x00000510                OR_DriverIRQHandler
                0x00000510                EDMA_0_CH13_DriverIRQHandler
                0x00000510                USB1_HS_DriverIRQHandler
                0x00000510                EDMA_0_CH1_DriverIRQHandler
                0x00000510                DAC2_DriverIRQHandler
                0x00000510                GPIO51_DriverIRQHandler
                0x00000510                HSCMP0_DriverIRQHandler
                0x00000510                QDC0_WDG_SAB_DriverIRQHandler
                0x00000510                EDMA_0_CH12_DriverIRQHandler
                0x00000510                CDOG0_DriverIRQHandler
                0x00000510                CAN0_DriverIRQHandler
                0x00000510                SMARTDMA_DriverIRQHandler
                0x00000510                SAI0_DriverIRQHandler
                0x00000510                EMVSIM1_DriverIRQHandler
                0x00000510                I3C1_DriverIRQHandler
                0x00000510                EDMA_0_CH7_DriverIRQHandler
                0x00000510                BusFault_Handler
                0x00000510                EDMA_1_CH10_DriverIRQHandler
                0x00000510                EDMA_1_CH12_DriverIRQHandler
                0x00000510                FLEXSPI0_DriverIRQHandler
                0x00000510                GPIO50_DriverIRQHandler
                0x00000510                GPIO10_DriverIRQHandler
                0x00000510                SCT0_DriverIRQHandler
                0x00000510                CAN1_DriverIRQHandler
                0x00000510                PLU_DriverIRQHandler
                0x00000510                FLEXPWM0_SUBMODULE0_DriverIRQHandler
                0x00000510                OS_EVENT_DriverIRQHandler
                0x00000510                SINC_FILTER_DriverIRQHandler
                0x00000510                NPU_DriverIRQHandler
                0x00000510                GPIO41_DriverIRQHandler
                0x00000510                SEC_HYPERVISOR_CALL_DriverIRQHandler
                0x00000514                NMI_Handler
                0x00000518                HardFault_Handler
                0x0000051c                SVC_Handler
                0x00000520                PendSV_Handler
                0x00000524                SysTick_Handler
                0x00000528                OR_IRQHandler
                0x0000052c                EDMA_0_CH0_IRQHandler
                0x00000530                EDMA_0_CH1_IRQHandler
                0x00000534                EDMA_0_CH2_IRQHandler
                0x00000538                EDMA_0_CH3_IRQHandler
                0x0000053c                EDMA_0_CH4_IRQHandler
                0x00000540                EDMA_0_CH5_IRQHandler
                0x00000544                EDMA_0_CH6_IRQHandler
                0x00000548                EDMA_0_CH7_IRQHandler
                0x0000054c                EDMA_0_CH8_IRQHandler
                0x00000550                EDMA_0_CH9_IRQHandler
                0x00000554                EDMA_0_CH10_IRQHandler
                0x00000558                EDMA_0_CH11_IRQHandler
                0x0000055c                EDMA_0_CH12_IRQHandler
                0x00000560                EDMA_0_CH13_IRQHandler
                0x00000564                EDMA_0_CH14_IRQHandler
                0x00000568                EDMA_0_CH15_IRQHandler
                0x00000570                GPIO01_IRQHandler
                0x00000574                GPIO10_IRQHandler
                0x00000578                GPIO11_IRQHandler
                0x0000057c                GPIO20_IRQHandler
                0x00000580                GPIO21_IRQHandler
                0x00000584                GPIO30_IRQHandler
                0x00000590                GPIO41_IRQHandler
                0x00000594                GPIO50_IRQHandler
                0x00000598                GPIO51_IRQHandler
                0x0000059c                UTICK0_IRQHandler
                0x000005a0                MRT0_IRQHandler
                0x000005a4                CTIMER0_IRQHandler
                0x000005a8                CTIMER1_IRQHandler
                0x000005ac                SCT0_IRQHandler
                0x000005b0                CTIMER2_IRQHandler
                0x000005b4                LP_FLEXCOMM0_IRQHandler
                0x000005b8                LP_FLEXCOMM1_IRQHandler
                0x000005bc                LP_FLEXCOMM2_IRQHandler
                0x000005c0                LP_FLEXCOMM3_IRQHandler
                0x000005c4                LP_FLEXCOMM4_IRQHandler
                0x000005c8                LP_FLEXCOMM5_IRQHandler
                0x000005cc                LP_FLEXCOMM6_IRQHandler
                0x000005d0                LP_FLEXCOMM7_IRQHandler
                0x000005d4                LP_FLEXCOMM8_IRQHandler
                0x000005d8                LP_FLEXCOMM9_IRQHandler
                0x000005dc                ADC0_IRQHandler
                0x000005e0                ADC1_IRQHandler
                0x000005e4                PINT0_IRQHandler
                0x000005e8                PDM_EVENT_IRQHandler
                0x000005ec                Reserved65_IRQHandler
                0x000005f0                USB0_FS_IRQHandler
                0x000005f4                USB0_DCD_IRQHandler
                0x000005f8                RTC_IRQHandler
                0x000005fc                SMARTDMA_IRQHandler
                0x00000600                MAILBOX_IRQHandler
                0x00000604                CTIMER3_IRQHandler
                0x00000608                CTIMER4_IRQHandler
                0x0000060c                OS_EVENT_IRQHandler
                0x00000610                FLEXSPI0_IRQHandler
                0x00000614                SAI0_IRQHandler
                0x00000618                SAI1_IRQHandler
                0x0000061c                USDHC0_IRQHandler
                0x00000620                CAN0_IRQHandler
                0x00000624                CAN1_IRQHandler
                0x00000628                Reserved80_IRQHandler
                0x0000062c                Reserved81_IRQHandler
                0x00000630                USB1_HS_PHY_IRQHandler
                0x00000634                USB1_HS_IRQHandler
                0x00000638                SEC_HYPERVISOR_CALL_IRQHandler
                0x0000063c                Reserved85_IRQHandler
                0x00000640                PLU_IRQHandler
                0x00000644                Freqme_IRQHandler
                0x00000648                SEC_VIO_IRQHandler
                0x0000064c                ELS_IRQHandler
                0x00000650                PKC_IRQHandler
                0x00000654                PUF_IRQHandler
                0x00000658                PQ_IRQHandler
                0x0000065c                EDMA_1_CH0_IRQHandler
                0x00000660                EDMA_1_CH1_IRQHandler
                0x00000664                EDMA_1_CH2_IRQHandler
                0x00000668                EDMA_1_CH3_IRQHandler
                0x0000066c                EDMA_1_CH4_IRQHandler
                0x00000670                EDMA_1_CH5_IRQHandler
                0x00000674                EDMA_1_CH6_IRQHandler
                0x00000678                EDMA_1_CH7_IRQHandler
                0x0000067c                EDMA_1_CH8_IRQHandler
                0x00000680                EDMA_1_CH9_IRQHandler
                0x00000684                EDMA_1_CH10_IRQHandler
                0x00000688                EDMA_1_CH11_IRQHandler
                0x0000068c                EDMA_1_CH12_IRQHandler
                0x00000690                EDMA_1_CH13_IRQHandler
                0x00000694                EDMA_1_CH14_IRQHandler
                0x00000698                EDMA_1_CH15_IRQHandler
                0x0000069c                CDOG0_IRQHandler
                0x000006a0                CDOG1_IRQHandler
                0x000006a4                I3C0_IRQHandler
                0x000006a8                I3C1_IRQHandler
                0x000006ac                NPU_IRQHandler
                0x000006b0                GDET_IRQHandler
                0x000006b4                VBAT0_IRQHandler
                0x000006b8                EWM0_IRQHandler
                0x000006bc                TSI_END_OF_SCAN_IRQHandler
                0x000006c0                TSI_OUT_OF_SCAN_IRQHandler
                0x000006c4                EMVSIM0_IRQHandler
                0x000006c8                EMVSIM1_IRQHandler
                0x000006cc                FLEXIO_IRQHandler
                0x000006d0                DAC0_IRQHandler
                0x000006d4                DAC1_IRQHandler
                0x000006d8                DAC2_IRQHandler
                0x000006dc                HSCMP0_IRQHandler
                0x000006e0                HSCMP1_IRQHandler
                0x000006e4                HSCMP2_IRQHandler
                0x000006e8                FLEXPWM0_RELOAD_ERROR_IRQHandler
                0x000006ec                FLEXPWM0_FAULT_IRQHandler
                0x000006f0                FLEXPWM0_SUBMODULE0_IRQHandler
                0x000006f4                FLEXPWM0_SUBMODULE1_IRQHandler
                0x000006f8                FLEXPWM0_SUBMODULE2_IRQHandler
                0x000006fc                FLEXPWM0_SUBMODULE3_IRQHandler
                0x00000700                FLEXPWM1_RELOAD_ERROR_IRQHandler
                0x00000704                FLEXPWM1_FAULT_IRQHandler
                0x00000708                FLEXPWM1_SUBMODULE0_IRQHandler
                0x0000070c                FLEXPWM1_SUBMODULE1_IRQHandler
                0x00000710                FLEXPWM1_SUBMODULE2_IRQHandler
                0x00000714                FLEXPWM1_SUBMODULE3_IRQHandler
                0x00000718                QDC0_COMPARE_IRQHandler
                0x0000071c                QDC0_HOME_IRQHandler
                0x00000720                QDC0_WDG_SAB_IRQHandler
                0x00000724                QDC0_IDX_IRQHandler
                0x00000728                QDC1_COMPARE_IRQHandler
                0x0000072c                QDC1_HOME_IRQHandler
                0x00000730                QDC1_WDG_SAB_IRQHandler
                0x00000734                QDC1_IDX_IRQHandler
                0x00000738                ITRC0_IRQHandler
                0x0000073c                BSP32_IRQHandler
                0x00000740                ELS_ERR_IRQHandler
                0x00000744                PKC_ERR_IRQHandler
                0x00000748                ERM_SINGLE_BIT_ERROR_IRQHandler
                0x0000074c                ERM_MULTI_BIT_ERROR_IRQHandler
                0x00000750                FMU0_IRQHandler
                0x00000754                ETHERNET_IRQHandler
                0x00000758                ETHERNET_PMT_IRQHandler
                0x0000075c                ETHERNET_MACLP_IRQHandler
                0x00000760                SINC_FILTER_IRQHandler
                0x00000764                LPTMR0_IRQHandler
                0x00000768                LPTMR1_IRQHandler
                0x0000076c                SCG_IRQHandler
                0x00000770                SPC_IRQHandler
                0x00000774                WUU_IRQHandler
                0x00000778                PORT_EFT_IRQHandler
                0x0000077c                ETB0_IRQHandler
                0x00000780                Reserved166_IRQHandler
                0x00000784                Reserved167_IRQHandler
                0x00000788                WWDT0_IRQHandler
                0x0000078c                WWDT1_IRQHandler
                0x00000790                CMC0_IRQHandler
                0x00000794                CTI0_IRQHandler
 .text          0x00000a1c       0xa0 CMakeFiles/led_blinky_peripheral_cm33_core0.elf.dir/home/brusli/Documents/Projects/NXP/main/sdks/main_testing_sdk/devices/MCXN947/utilities/fsl_memcpy.S.obj
                0x00000a1c                memcpy
 .text          0x00000abc      0x378 /home/brusli/.mcuxpressotools/arm-gnu-toolchain-14.2.rel1-x86_64-arm-none-eabi/bin/../lib/gcc/arm-none-eabi/14.2.1/thumb/v8-m.main+fp/hard/libgcc.a(_arm_addsubdf3.o)
                0x00000abc                __aeabi_drsub
                0x00000ac4                __aeabi_dsub
                0x00000ac4                __subdf3
                0x00000ac8                __adddf3
                0x00000ac8                __aeabi_dadd
                0x00000d40                __aeabi_ui2d
                0x00000d40                __floatunsidf
                0x00000d60                __floatsidf
                0x00000d60                __aeabi_i2d
                0x00000d84                __extendsfdf2
                0x00000d84                __aeabi_f2d
                0x00000dc8                __aeabi_ul2d
                0x00000dc8                __floatundidf
                0x00000dd8                __floatdidf
                0x00000dd8                __aeabi_l2d
 .text          0x00000e34      0x424 /home/brusli/.mcuxpressotools/arm-gnu-toolchain-14.2.rel1-x86_64-arm-none-eabi/bin/../lib/gcc/arm-none-eabi/14.2.1/thumb/v8-m.main+fp/hard/libgcc.a(_arm_muldivdf3.o)
                0x00000e34                __aeabi_dmul
                0x00000e34                __muldf3
                0x00001088                __aeabi_ddiv
                0x00001088                __divdf3
 .text          0x00001258       0x30 /home/brusli/.mcuxpressotools/arm-gnu-toolchain-14.2.rel1-x86_64-arm-none-eabi/bin/../lib/gcc/arm-none-eabi/14.2.1/thumb/v8-m.main+fp/hard/libgcc.a(_aeabi_uldivmod.o)
                0x00001258                __aeabi_uldivmod
 .text          0x00001288        0x4 /home/brusli/.mcuxpressotools/arm-gnu-toolchain-14.2.rel1-x86_64-arm-none-eabi/bin/../lib/gcc/arm-none-eabi/14.2.1/thumb/v8-m.main+fp/hard/libgcc.a(_dvmd_tls.o)
                0x00001288                __aeabi_ldiv0
                0x00001288                __aeabi_idiv0
 .text          0x0000128c       0x40 /home/brusli/.mcuxpressotools/arm-gnu-toolchain-14.2.rel1-x86_64-arm-none-eabi/bin/../lib/gcc/arm-none-eabi/14.2.1/thumb/v8-m.main+fp/hard/libgcc.a(_arm_fixunsdfsi.o)
                0x0000128c                __fixunsdfsi
                0x0000128c                __aeabi_d2uiz
 .text          0x000012cc       0x10 /home/brusli/.mcuxpressotools/arm-gnu-toolchain-14.2.rel1-x86_64-arm-none-eabi/bin/../lib/gcc/arm-none-eabi/14.2.1/../../../../arm-none-eabi/lib/thumb/v8-m.main+fp/hard/libc_nano.a(libc_a-strlen.o)
                0x000012cc                strlen
 *(.text*)
 .text.deregister_tm_clones
                0x000012dc       0x1c /home/brusli/.mcuxpressotools/arm-gnu-toolchain-14.2.rel1-x86_64-arm-none-eabi/bin/../lib/gcc/arm-none-eabi/14.2.1/thumb/v8-m.main+fp/hard/crtbegin.o
 .text.register_tm_clones
                0x000012f8       0x28 /home/brusli/.mcuxpressotools/arm-gnu-toolchain-14.2.rel1-x86_64-arm-none-eabi/bin/../lib/gcc/arm-none-eabi/14.2.1/thumb/v8-m.main+fp/hard/crtbegin.o
 .text.__do_global_dtors_aux
                0x00001320       0x28 /home/brusli/.mcuxpressotools/arm-gnu-toolchain-14.2.rel1-x86_64-arm-none-eabi/bin/../lib/gcc/arm-none-eabi/14.2.1/thumb/v8-m.main+fp/hard/crtbegin.o
 .text.frame_dummy
                0x00001348       0x24 /home/brusli/.mcuxpressotools/arm-gnu-toolchain-14.2.rel1-x86_64-arm-none-eabi/bin/../lib/gcc/arm-none-eabi/14.2.1/thumb/v8-m.main+fp/hard/crtbegin.o
 .text.GPIO_PinWrite
                0x0000136c       0x36 CMakeFiles/led_blinky_peripheral_cm33_core0.elf.dir/home/brusli/Documents/Projects/NXP/main/MCX_LAB_6_OLED/MCX_LAB_6_OLED/led_blinky.c.obj
 .text.GPIO_PinRead
                0x000013a2       0x24 CMakeFiles/led_blinky_peripheral_cm33_core0.elf.dir/home/brusli/Documents/Projects/NXP/main/MCX_LAB_6_OLED/MCX_LAB_6_OLED/led_blinky.c.obj
 .text.LPADC_DoSoftwareTrigger
                0x000013c6       0x1c CMakeFiles/led_blinky_peripheral_cm33_core0.elf.dir/home/brusli/Documents/Projects/NXP/main/MCX_LAB_6_OLED/MCX_LAB_6_OLED/led_blinky.c.obj
 .text.CTIMER_StartTimer
                0x000013e2       0x20 CMakeFiles/led_blinky_peripheral_cm33_core0.elf.dir/home/brusli/Documents/Projects/NXP/main/MCX_LAB_6_OLED/MCX_LAB_6_OLED/led_blinky.c.obj
 .text.CTIMER_StopTimer
                0x00001402       0x20 CMakeFiles/led_blinky_peripheral_cm33_core0.elf.dir/home/brusli/Documents/Projects/NXP/main/MCX_LAB_6_OLED/MCX_LAB_6_OLED/led_blinky.c.obj
 *fill*         0x00001422        0x2 
 .text.GPIO40_IRQHandler
                0x00001424       0x4c CMakeFiles/led_blinky_peripheral_cm33_core0.elf.dir/home/brusli/Documents/Projects/NXP/main/MCX_LAB_6_OLED/MCX_LAB_6_OLED/led_blinky.c.obj
                0x00001424                GPIO40_IRQHandler
 .text.GPIO00_IRQHandler
                0x00001470       0x30 CMakeFiles/led_blinky_peripheral_cm33_core0.elf.dir/home/brusli/Documents/Projects/NXP/main/MCX_LAB_6_OLED/MCX_LAB_6_OLED/led_blinky.c.obj
                0x00001470                GPIO00_IRQHandler
 .text.GPIO31_IRQHandler
                0x000014a0       0x68 CMakeFiles/led_blinky_peripheral_cm33_core0.elf.dir/home/brusli/Documents/Projects/NXP/main/MCX_LAB_6_OLED/MCX_LAB_6_OLED/led_blinky.c.obj
                0x000014a0                GPIO31_IRQHandler
 .text.ctimer1_match_callback
                0x00001508       0x20 CMakeFiles/led_blinky_peripheral_cm33_core0.elf.dir/home/brusli/Documents/Projects/NXP/main/MCX_LAB_6_OLED/MCX_LAB_6_OLED/led_blinky.c.obj
                0x00001508                ctimer1_match_callback
 .text.ctimer2_match_callback
                0x00001528       0x20 CMakeFiles/led_blinky_peripheral_cm33_core0.elf.dir/home/brusli/Documents/Projects/NXP/main/MCX_LAB_6_OLED/MCX_LAB_6_OLED/led_blinky.c.obj
                0x00001528                ctimer2_match_callback
 .text.main     0x00001548      0x7f4 CMakeFiles/led_blinky_peripheral_cm33_core0.elf.dir/home/brusli/Documents/Projects/NXP/main/MCX_LAB_6_OLED/MCX_LAB_6_OLED/led_blinky.c.obj
                0x00001548                main
 .text.__NVIC_EnableIRQ
                0x00001d3c       0x3c CMakeFiles/led_blinky_peripheral_cm33_core0.elf.dir/home/brusli/Documents/Projects/NXP/main/MCX_LAB_6_OLED/MCX_LAB_6_OLED/peripherals.c.obj
 .text.EnableIRQ
                0x00001d78       0x32 CMakeFiles/led_blinky_peripheral_cm33_core0.elf.dir/home/brusli/Documents/Projects/NXP/main/MCX_LAB_6_OLED/MCX_LAB_6_OLED/peripherals.c.obj
 .text.SPC_EnableActiveModeAnalogModules
                0x00001daa       0x26 CMakeFiles/led_blinky_peripheral_cm33_core0.elf.dir/home/brusli/Documents/Projects/NXP/main/MCX_LAB_6_OLED/MCX_LAB_6_OLED/peripherals.c.obj
 .text.GPIO4_init
                0x00001dd0        0xe CMakeFiles/led_blinky_peripheral_cm33_core0.elf.dir/home/brusli/Documents/Projects/NXP/main/MCX_LAB_6_OLED/MCX_LAB_6_OLED/peripherals.c.obj
 .text.GPIO3_init
                0x00001dde        0xe CMakeFiles/led_blinky_peripheral_cm33_core0.elf.dir/home/brusli/Documents/Projects/NXP/main/MCX_LAB_6_OLED/MCX_LAB_6_OLED/peripherals.c.obj
 .text.VREF0_init
                0x00001dec       0x24 CMakeFiles/led_blinky_peripheral_cm33_core0.elf.dir/home/brusli/Documents/Projects/NXP/main/MCX_LAB_6_OLED/MCX_LAB_6_OLED/peripherals.c.obj
 .text.ADC0_init
                0x00001e10       0x6c CMakeFiles/led_blinky_peripheral_cm33_core0.elf.dir/home/brusli/Documents/Projects/NXP/main/MCX_LAB_6_OLED/MCX_LAB_6_OLED/peripherals.c.obj
 .text.CTIMER0_init
                0x00001e7c       0x34 CMakeFiles/led_blinky_peripheral_cm33_core0.elf.dir/home/brusli/Documents/Projects/NXP/main/MCX_LAB_6_OLED/MCX_LAB_6_OLED/peripherals.c.obj
 .text.CTIMER1_init
                0x00001eb0       0x34 CMakeFiles/led_blinky_peripheral_cm33_core0.elf.dir/home/brusli/Documents/Projects/NXP/main/MCX_LAB_6_OLED/MCX_LAB_6_OLED/peripherals.c.obj
 .text.GPIO0_init
                0x00001ee4        0xe CMakeFiles/led_blinky_peripheral_cm33_core0.elf.dir/home/brusli/Documents/Projects/NXP/main/MCX_LAB_6_OLED/MCX_LAB_6_OLED/peripherals.c.obj
 .text.BOARD_InitPeripherals
                0x00001ef2       0x24 CMakeFiles/led_blinky_peripheral_cm33_core0.elf.dir/home/brusli/Documents/Projects/NXP/main/MCX_LAB_6_OLED/MCX_LAB_6_OLED/peripherals.c.obj
                0x00001ef2                BOARD_InitPeripherals
 .text.BOARD_InitBootPeripherals
                0x00001f16        0xc CMakeFiles/led_blinky_peripheral_cm33_core0.elf.dir/home/brusli/Documents/Projects/NXP/main/MCX_LAB_6_OLED/MCX_LAB_6_OLED/peripherals.c.obj
                0x00001f16                BOARD_InitBootPeripherals
 *fill*         0x00001f22        0x2 
 .text.BOARD_InitDebugConsole
                0x00001f24       0x38 CMakeFiles/led_blinky_peripheral_cm33_core0.elf.dir/home/brusli/Documents/Projects/NXP/main/MCX_LAB_6_OLED/MCX_LAB_6_OLED/board.c.obj
                0x00001f24                BOARD_InitDebugConsole
 .text.CLOCK_EnableClock
                0x00001f5c       0x94 CMakeFiles/led_blinky_peripheral_cm33_core0.elf.dir/home/brusli/Documents/Projects/NXP/main/MCX_LAB_6_OLED/MCX_LAB_6_OLED/clock_config.c.obj
 .text.BOARD_InitBootClocks
                0x00001ff0        0xc CMakeFiles/led_blinky_peripheral_cm33_core0.elf.dir/home/brusli/Documents/Projects/NXP/main/MCX_LAB_6_OLED/MCX_LAB_6_OLED/clock_config.c.obj
                0x00001ff0                BOARD_InitBootClocks
 .text.BOARD_BootClockPLL150M
                0x00001ffc      0x194 CMakeFiles/led_blinky_peripheral_cm33_core0.elf.dir/home/brusli/Documents/Projects/NXP/main/MCX_LAB_6_OLED/MCX_LAB_6_OLED/clock_config.c.obj
                0x00001ffc                BOARD_BootClockPLL150M
 .text.CLOCK_EnableClock
                0x00002190       0x94 CMakeFiles/led_blinky_peripheral_cm33_core0.elf.dir/home/brusli/Documents/Projects/NXP/main/MCX_LAB_6_OLED/MCX_LAB_6_OLED/pin_mux.c.obj
 .text.PORT_SetPinConfig
                0x00002224       0x48 CMakeFiles/led_blinky_peripheral_cm33_core0.elf.dir/home/brusli/Documents/Projects/NXP/main/MCX_LAB_6_OLED/MCX_LAB_6_OLED/pin_mux.c.obj
 .text.PORT_SetPinMux
                0x0000226c       0x3e CMakeFiles/led_blinky_peripheral_cm33_core0.elf.dir/home/brusli/Documents/Projects/NXP/main/MCX_LAB_6_OLED/MCX_LAB_6_OLED/pin_mux.c.obj
 *fill*         0x000022aa        0x2 
 .text.GPIO_SetPinInterruptConfig
                0x000022ac       0x5c CMakeFiles/led_blinky_peripheral_cm33_core0.elf.dir/home/brusli/Documents/Projects/NXP/main/MCX_LAB_6_OLED/MCX_LAB_6_OLED/pin_mux.c.obj
 .text.BOARD_InitBootPins
                0x00002308       0x10 CMakeFiles/led_blinky_peripheral_cm33_core0.elf.dir/home/brusli/Documents/Projects/NXP/main/MCX_LAB_6_OLED/MCX_LAB_6_OLED/pin_mux.c.obj
                0x00002308                BOARD_InitBootPins
 .text.BOARD_InitDEBUG_UARTPins
                0x00002318       0x5c CMakeFiles/led_blinky_peripheral_cm33_core0.elf.dir/home/brusli/Documents/Projects/NXP/main/MCX_LAB_6_OLED/MCX_LAB_6_OLED/pin_mux.c.obj
                0x00002318                BOARD_InitDEBUG_UARTPins
 .text.BOARD_InitLEDsPins
                0x00002374       0xc0 CMakeFiles/led_blinky_peripheral_cm33_core0.elf.dir/home/brusli/Documents/Projects/NXP/main/MCX_LAB_6_OLED/MCX_LAB_6_OLED/pin_mux.c.obj
                0x00002374                BOARD_InitLEDsPins
 .text.BOARD_InitBUTTONsPins
                0x00002434       0x88 CMakeFiles/led_blinky_peripheral_cm33_core0.elf.dir/home/brusli/Documents/Projects/NXP/main/MCX_LAB_6_OLED/MCX_LAB_6_OLED/pin_mux.c.obj
                0x00002434                BOARD_InitBUTTONsPins
 .text.SHIELD_InitLEDsPins
                0x000024bc      0x1c8 CMakeFiles/led_blinky_peripheral_cm33_core0.elf.dir/home/brusli/Documents/Projects/NXP/main/MCX_LAB_6_OLED/MCX_LAB_6_OLED/pin_mux.c.obj
                0x000024bc                SHIELD_InitLEDsPins
 .text.SHIELD_InitBUTTONsPins
                0x00002684      0x13c CMakeFiles/led_blinky_peripheral_cm33_core0.elf.dir/home/brusli/Documents/Projects/NXP/main/MCX_LAB_6_OLED/MCX_LAB_6_OLED/pin_mux.c.obj
                0x00002684                SHIELD_InitBUTTONsPins
 .text.SHIELD_NAVSwitchPins
                0x000027c0      0x14c CMakeFiles/led_blinky_peripheral_cm33_core0.elf.dir/home/brusli/Documents/Projects/NXP/main/MCX_LAB_6_OLED/MCX_LAB_6_OLED/pin_mux.c.obj
                0x000027c0                SHIELD_NAVSwitchPins
 .text.SHIELD_DIPSwitchPins
                0x0000290c      0x1c8 CMakeFiles/led_blinky_peripheral_cm33_core0.elf.dir/home/brusli/Documents/Projects/NXP/main/MCX_LAB_6_OLED/MCX_LAB_6_OLED/pin_mux.c.obj
                0x0000290c                SHIELD_DIPSwitchPins
 .text.SHIELD_RotaryPins
                0x00002ad4       0xec CMakeFiles/led_blinky_peripheral_cm33_core0.elf.dir/home/brusli/Documents/Projects/NXP/main/MCX_LAB_6_OLED/MCX_LAB_6_OLED/pin_mux.c.obj
                0x00002ad4                SHIELD_RotaryPins
 .text.LPI2C2_InitPins
                0x00002bc0       0x48 CMakeFiles/led_blinky_peripheral_cm33_core0.elf.dir/home/brusli/Documents/Projects/NXP/main/MCX_LAB_6_OLED/MCX_LAB_6_OLED/pin_mux.c.obj
                0x00002bc0                LPI2C2_InitPins
 .text.sendOLED
                0x00002c08       0x44 CMakeFiles/led_blinky_peripheral_cm33_core0.elf.dir/home/brusli/Documents/Projects/NXP/main/MCX_LAB_6_OLED/MCX_LAB_6_OLED/oled.c.obj
                0x00002c08                sendOLED
 .text.initOLED
                0x00002c4c       0x7c CMakeFiles/led_blinky_peripheral_cm33_core0.elf.dir/home/brusli/Documents/Projects/NXP/main/MCX_LAB_6_OLED/MCX_LAB_6_OLED/oled.c.obj
                0x00002c4c                initOLED
 .text.printfOLED
                0x00002cc8      0x154 CMakeFiles/led_blinky_peripheral_cm33_core0.elf.dir/home/brusli/Documents/Projects/NXP/main/MCX_LAB_6_OLED/MCX_LAB_6_OLED/oled.c.obj
                0x00002cc8                printfOLED
 .text.writeChar
                0x00002e1c       0x34 CMakeFiles/led_blinky_peripheral_cm33_core0.elf.dir/home/brusli/Documents/Projects/NXP/main/MCX_LAB_6_OLED/MCX_LAB_6_OLED/oled.c.obj
                0x00002e1c                writeChar
 .text.setPage  0x00002e50       0x28 CMakeFiles/led_blinky_peripheral_cm33_core0.elf.dir/home/brusli/Documents/Projects/NXP/main/MCX_LAB_6_OLED/MCX_LAB_6_OLED/oled.c.obj
                0x00002e50                setPage
 .text.setSeg   0x00002e78       0x38 CMakeFiles/led_blinky_peripheral_cm33_core0.elf.dir/home/brusli/Documents/Projects/NXP/main/MCX_LAB_6_OLED/MCX_LAB_6_OLED/oled.c.obj
                0x00002e78                setSeg
 .text.fillOLED
                0x00002eb0       0x6e CMakeFiles/led_blinky_peripheral_cm33_core0.elf.dir/home/brusli/Documents/Projects/NXP/main/MCX_LAB_6_OLED/MCX_LAB_6_OLED/oled.c.obj
                0x00002eb0                fillOLED
 *fill*         0x00002f1e        0x2 
 .text.lineWrap
                0x00002f20       0x88 CMakeFiles/led_blinky_peripheral_cm33_core0.elf.dir/home/brusli/Documents/Projects/NXP/main/MCX_LAB_6_OLED/MCX_LAB_6_OLED/oled.c.obj
                0x00002f20                lineWrap
 .text.resetOLED
                0x00002fa8       0x30 CMakeFiles/led_blinky_peripheral_cm33_core0.elf.dir/home/brusli/Documents/Projects/NXP/main/MCX_LAB_6_OLED/MCX_LAB_6_OLED/oled.c.obj
                0x00002fa8                resetOLED
 .text.fillPage
                0x00002fd8       0x4e CMakeFiles/led_blinky_peripheral_cm33_core0.elf.dir/home/brusli/Documents/Projects/NXP/main/MCX_LAB_6_OLED/MCX_LAB_6_OLED/oled.c.obj
                0x00002fd8                fillPage
 .text.scrollOLED
                0x00003026       0x28 CMakeFiles/led_blinky_peripheral_cm33_core0.elf.dir/home/brusli/Documents/Projects/NXP/main/MCX_LAB_6_OLED/MCX_LAB_6_OLED/oled.c.obj
                0x00003026                scrollOLED
 .text.HAL_UartGetStatus
                0x0000304e       0x28 CMakeFiles/led_blinky_peripheral_cm33_core0.elf.dir/home/brusli/Documents/Projects/NXP/main/sdks/main_testing_sdk/components/uart/fsl_adapter_lpuart.c.obj
 *fill*         0x00003076        0x2 
 .text.HAL_UartInitCommon
                0x00003078       0xe4 CMakeFiles/led_blinky_peripheral_cm33_core0.elf.dir/home/brusli/Documents/Projects/NXP/main/sdks/main_testing_sdk/components/uart/fsl_adapter_lpuart.c.obj
 .text.HAL_UartInit
                0x0000315c       0xac CMakeFiles/led_blinky_peripheral_cm33_core0.elf.dir/home/brusli/Documents/Projects/NXP/main/sdks/main_testing_sdk/components/uart/fsl_adapter_lpuart.c.obj
                0x0000315c                HAL_UartInit
 .text.HAL_UartReceiveBlocking
                0x00003208       0x8c CMakeFiles/led_blinky_peripheral_cm33_core0.elf.dir/home/brusli/Documents/Projects/NXP/main/sdks/main_testing_sdk/components/uart/fsl_adapter_lpuart.c.obj
                0x00003208                HAL_UartReceiveBlocking
 .text.HAL_UartSendBlocking
                0x00003294       0x84 CMakeFiles/led_blinky_peripheral_cm33_core0.elf.dir/home/brusli/Documents/Projects/NXP/main/sdks/main_testing_sdk/components/uart/fsl_adapter_lpuart.c.obj
                0x00003294                HAL_UartSendBlocking
 .text.SystemInit
                0x00003318      0x124 CMakeFiles/led_blinky_peripheral_cm33_core0.elf.dir/home/brusli/Documents/Projects/NXP/main/sdks/main_testing_sdk/devices/MCXN947/system_MCXN947_cm33_core0.c.obj
                0x00003318                SystemInit
 .text.SystemInitHook
                0x0000343c        0xe CMakeFiles/led_blinky_peripheral_cm33_core0.elf.dir/home/brusli/Documents/Projects/NXP/main/sdks/main_testing_sdk/devices/MCXN947/system_MCXN947_cm33_core0.c.obj
                0x0000343c                SystemInitHook
 *fill*         0x0000344a        0x2 
 .text.CLOCK_IsPLL0Locked
                0x0000344c       0x28 CMakeFiles/led_blinky_peripheral_cm33_core0.elf.dir/home/brusli/Documents/Projects/NXP/main/sdks/main_testing_sdk/devices/MCXN947/drivers/fsl_clock.c.obj
 .text.CLOCK_IsPLL1Locked
                0x00003474       0x28 CMakeFiles/led_blinky_peripheral_cm33_core0.elf.dir/home/brusli/Documents/Projects/NXP/main/sdks/main_testing_sdk/devices/MCXN947/drivers/fsl_clock.c.obj
 .text.CLOCK_SetupFROHFClocking
                0x0000349c       0x9c CMakeFiles/led_blinky_peripheral_cm33_core0.elf.dir/home/brusli/Documents/Projects/NXP/main/sdks/main_testing_sdk/devices/MCXN947/drivers/fsl_clock.c.obj
                0x0000349c                CLOCK_SetupFROHFClocking
 .text.CLOCK_SetPll0MonitorMode
                0x00003538       0x38 CMakeFiles/led_blinky_peripheral_cm33_core0.elf.dir/home/brusli/Documents/Projects/NXP/main/sdks/main_testing_sdk/devices/MCXN947/drivers/fsl_clock.c.obj
                0x00003538                CLOCK_SetPll0MonitorMode
 .text.CLOCK_SetPll1MonitorMode
                0x00003570       0x38 CMakeFiles/led_blinky_peripheral_cm33_core0.elf.dir/home/brusli/Documents/Projects/NXP/main/sdks/main_testing_sdk/devices/MCXN947/drivers/fsl_clock.c.obj
                0x00003570                CLOCK_SetPll1MonitorMode
 .text.CLOCK_AttachClk
                0x000035a8       0xb0 CMakeFiles/led_blinky_peripheral_cm33_core0.elf.dir/home/brusli/Documents/Projects/NXP/main/sdks/main_testing_sdk/devices/MCXN947/drivers/fsl_clock.c.obj
                0x000035a8                CLOCK_AttachClk
 .text.CLOCK_SetClkDiv
                0x00003658       0x54 CMakeFiles/led_blinky_peripheral_cm33_core0.elf.dir/home/brusli/Documents/Projects/NXP/main/sdks/main_testing_sdk/devices/MCXN947/drivers/fsl_clock.c.obj
                0x00003658                CLOCK_SetClkDiv
 .text.CLOCK_GetLPFlexCommClkFreq
                0x000036ac       0xa0 CMakeFiles/led_blinky_peripheral_cm33_core0.elf.dir/home/brusli/Documents/Projects/NXP/main/sdks/main_testing_sdk/devices/MCXN947/drivers/fsl_clock.c.obj
                0x000036ac                CLOCK_GetLPFlexCommClkFreq
 .text.CLOCK_GetPll0OutFreq
                0x0000374c       0x88 CMakeFiles/led_blinky_peripheral_cm33_core0.elf.dir/home/brusli/Documents/Projects/NXP/main/sdks/main_testing_sdk/devices/MCXN947/drivers/fsl_clock.c.obj
                0x0000374c                CLOCK_GetPll0OutFreq
 .text.CLOCK_GetPll1OutFreq
                0x000037d4       0x82 CMakeFiles/led_blinky_peripheral_cm33_core0.elf.dir/home/brusli/Documents/Projects/NXP/main/sdks/main_testing_sdk/devices/MCXN947/drivers/fsl_clock.c.obj
                0x000037d4                CLOCK_GetPll1OutFreq
 .text.CLOCK_GetPllClkDivFreq
                0x00003856       0x5e CMakeFiles/led_blinky_peripheral_cm33_core0.elf.dir/home/brusli/Documents/Projects/NXP/main/sdks/main_testing_sdk/devices/MCXN947/drivers/fsl_clock.c.obj
                0x00003856                CLOCK_GetPllClkDivFreq
 .text.CLOCK_GetPLL0InClockRate
                0x000038b4       0x5c CMakeFiles/led_blinky_peripheral_cm33_core0.elf.dir/home/brusli/Documents/Projects/NXP/main/sdks/main_testing_sdk/devices/MCXN947/drivers/fsl_clock.c.obj
                0x000038b4                CLOCK_GetPLL0InClockRate
 .text.CLOCK_GetPLL1InClockRate
                0x00003910       0x58 CMakeFiles/led_blinky_peripheral_cm33_core0.elf.dir/home/brusli/Documents/Projects/NXP/main/sdks/main_testing_sdk/devices/MCXN947/drivers/fsl_clock.c.obj
                0x00003910                CLOCK_GetPLL1InClockRate
 .text.CLOCK_SetPLL0Freq
                0x00003968      0x10c CMakeFiles/led_blinky_peripheral_cm33_core0.elf.dir/home/brusli/Documents/Projects/NXP/main/sdks/main_testing_sdk/devices/MCXN947/drivers/fsl_clock.c.obj
                0x00003968                CLOCK_SetPLL0Freq
 .text.CLOCK_SetPLL1Freq
                0x00003a74      0x10c CMakeFiles/led_blinky_peripheral_cm33_core0.elf.dir/home/brusli/Documents/Projects/NXP/main/sdks/main_testing_sdk/devices/MCXN947/drivers/fsl_clock.c.obj
                0x00003a74                CLOCK_SetPLL1Freq
 .text.CLOCK_GetFro12MFreq
                0x00003b80       0x2c CMakeFiles/led_blinky_peripheral_cm33_core0.elf.dir/home/brusli/Documents/Projects/NXP/main/sdks/main_testing_sdk/devices/MCXN947/drivers/fsl_clock.c.obj
 .text.CLOCK_GetClk1MFreq
                0x00003bac       0x14 CMakeFiles/led_blinky_peripheral_cm33_core0.elf.dir/home/brusli/Documents/Projects/NXP/main/sdks/main_testing_sdk/devices/MCXN947/drivers/fsl_clock.c.obj
 .text.CLOCK_GetFroHfFreq
                0x00003bc0       0x4c CMakeFiles/led_blinky_peripheral_cm33_core0.elf.dir/home/brusli/Documents/Projects/NXP/main/sdks/main_testing_sdk/devices/MCXN947/drivers/fsl_clock.c.obj
 .text.CLOCK_GetClk48MFreq
                0x00003c0c       0x2c CMakeFiles/led_blinky_peripheral_cm33_core0.elf.dir/home/brusli/Documents/Projects/NXP/main/sdks/main_testing_sdk/devices/MCXN947/drivers/fsl_clock.c.obj
 .text.CLOCK_GetClk16KFreq
                0x00003c38       0x44 CMakeFiles/led_blinky_peripheral_cm33_core0.elf.dir/home/brusli/Documents/Projects/NXP/main/sdks/main_testing_sdk/devices/MCXN947/drivers/fsl_clock.c.obj
 .text.CLOCK_GetExtClkFreq
                0x00003c7c       0x2c CMakeFiles/led_blinky_peripheral_cm33_core0.elf.dir/home/brusli/Documents/Projects/NXP/main/sdks/main_testing_sdk/devices/MCXN947/drivers/fsl_clock.c.obj
 .text.CLOCK_GetOsc32KFreq
                0x00003ca8       0x4c CMakeFiles/led_blinky_peripheral_cm33_core0.elf.dir/home/brusli/Documents/Projects/NXP/main/sdks/main_testing_sdk/devices/MCXN947/drivers/fsl_clock.c.obj
 .text.CLOCK_GetLposcFreq
                0x00003cf4       0x48 CMakeFiles/led_blinky_peripheral_cm33_core0.elf.dir/home/brusli/Documents/Projects/NXP/main/sdks/main_testing_sdk/devices/MCXN947/drivers/fsl_clock.c.obj
 .text.findPll0PreDiv
                0x00003d3c       0x40 CMakeFiles/led_blinky_peripheral_cm33_core0.elf.dir/home/brusli/Documents/Projects/NXP/main/sdks/main_testing_sdk/devices/MCXN947/drivers/fsl_clock.c.obj
 .text.findPll1PreDiv
                0x00003d7c       0x40 CMakeFiles/led_blinky_peripheral_cm33_core0.elf.dir/home/brusli/Documents/Projects/NXP/main/sdks/main_testing_sdk/devices/MCXN947/drivers/fsl_clock.c.obj
 .text.findPll0PostDiv
                0x00003dbc       0x60 CMakeFiles/led_blinky_peripheral_cm33_core0.elf.dir/home/brusli/Documents/Projects/NXP/main/sdks/main_testing_sdk/devices/MCXN947/drivers/fsl_clock.c.obj
 .text.findPll1PostDiv
                0x00003e1c       0x60 CMakeFiles/led_blinky_peripheral_cm33_core0.elf.dir/home/brusli/Documents/Projects/NXP/main/sdks/main_testing_sdk/devices/MCXN947/drivers/fsl_clock.c.obj
 .text.findPll0MMult
                0x00003e7c       0xac CMakeFiles/led_blinky_peripheral_cm33_core0.elf.dir/home/brusli/Documents/Projects/NXP/main/sdks/main_testing_sdk/devices/MCXN947/drivers/fsl_clock.c.obj
 .text.findPll1MMult
                0x00003f28       0xac CMakeFiles/led_blinky_peripheral_cm33_core0.elf.dir/home/brusli/Documents/Projects/NXP/main/sdks/main_testing_sdk/devices/MCXN947/drivers/fsl_clock.c.obj
 .text.DelayLoop
                0x00003fd4       0x20 CMakeFiles/led_blinky_peripheral_cm33_core0.elf.dir/home/brusli/Documents/Projects/NXP/main/sdks/main_testing_sdk/devices/MCXN947/drivers/fsl_common_arm.c.obj
 .text.SDK_DelayAtLeastUs
                0x00003ff4       0x98 CMakeFiles/led_blinky_peripheral_cm33_core0.elf.dir/home/brusli/Documents/Projects/NXP/main/sdks/main_testing_sdk/devices/MCXN947/drivers/fsl_common_arm.c.obj
                0x00003ff4                SDK_DelayAtLeastUs
 .text.__NVIC_EnableIRQ
                0x0000408c       0x3c CMakeFiles/led_blinky_peripheral_cm33_core0.elf.dir/home/brusli/Documents/Projects/NXP/main/sdks/main_testing_sdk/devices/MCXN947/drivers/fsl_ctimer.c.obj
 .text.CLOCK_EnableClock
                0x000040c8       0x94 CMakeFiles/led_blinky_peripheral_cm33_core0.elf.dir/home/brusli/Documents/Projects/NXP/main/sdks/main_testing_sdk/devices/MCXN947/drivers/fsl_ctimer.c.obj
 .text.EnableIRQ
                0x0000415c       0x32 CMakeFiles/led_blinky_peripheral_cm33_core0.elf.dir/home/brusli/Documents/Projects/NXP/main/sdks/main_testing_sdk/devices/MCXN947/drivers/fsl_ctimer.c.obj
 .text.CTIMER_GetStatusFlags
                0x0000418e       0x18 CMakeFiles/led_blinky_peripheral_cm33_core0.elf.dir/home/brusli/Documents/Projects/NXP/main/sdks/main_testing_sdk/devices/MCXN947/drivers/fsl_ctimer.c.obj
 .text.CTIMER_ClearStatusFlags
                0x000041a6       0x1c CMakeFiles/led_blinky_peripheral_cm33_core0.elf.dir/home/brusli/Documents/Projects/NXP/main/sdks/main_testing_sdk/devices/MCXN947/drivers/fsl_ctimer.c.obj
 *fill*         0x000041c2        0x2 
 .text.CTIMER_GetInstance
                0x000041c4       0x60 CMakeFiles/led_blinky_peripheral_cm33_core0.elf.dir/home/brusli/Documents/Projects/NXP/main/sdks/main_testing_sdk/devices/MCXN947/drivers/fsl_ctimer.c.obj
 .text.CTIMER_Init
                0x00004224       0x8c CMakeFiles/led_blinky_peripheral_cm33_core0.elf.dir/home/brusli/Documents/Projects/NXP/main/sdks/main_testing_sdk/devices/MCXN947/drivers/fsl_ctimer.c.obj
                0x00004224                CTIMER_Init
 .text.CTIMER_SetupMatch
                0x000042b0      0x128 CMakeFiles/led_blinky_peripheral_cm33_core0.elf.dir/home/brusli/Documents/Projects/NXP/main/sdks/main_testing_sdk/devices/MCXN947/drivers/fsl_ctimer.c.obj
                0x000042b0                CTIMER_SetupMatch
 .text.CTIMER_RegisterCallBack
                0x000043d8       0x3c CMakeFiles/led_blinky_peripheral_cm33_core0.elf.dir/home/brusli/Documents/Projects/NXP/main/sdks/main_testing_sdk/devices/MCXN947/drivers/fsl_ctimer.c.obj
                0x000043d8                CTIMER_RegisterCallBack
 .text.CTIMER_GenericIRQHandler
                0x00004414       0xb4 CMakeFiles/led_blinky_peripheral_cm33_core0.elf.dir/home/brusli/Documents/Projects/NXP/main/sdks/main_testing_sdk/devices/MCXN947/drivers/fsl_ctimer.c.obj
 .text.CTIMER0_DriverIRQHandler
                0x000044c8        0xe CMakeFiles/led_blinky_peripheral_cm33_core0.elf.dir/home/brusli/Documents/Projects/NXP/main/sdks/main_testing_sdk/devices/MCXN947/drivers/fsl_ctimer.c.obj
                0x000044c8                CTIMER0_DriverIRQHandler
 .text.CTIMER1_DriverIRQHandler
                0x000044d6        0xe CMakeFiles/led_blinky_peripheral_cm33_core0.elf.dir/home/brusli/Documents/Projects/NXP/main/sdks/main_testing_sdk/devices/MCXN947/drivers/fsl_ctimer.c.obj
                0x000044d6                CTIMER1_DriverIRQHandler
 .text.CTIMER2_DriverIRQHandler
                0x000044e4        0xe CMakeFiles/led_blinky_peripheral_cm33_core0.elf.dir/home/brusli/Documents/Projects/NXP/main/sdks/main_testing_sdk/devices/MCXN947/drivers/fsl_ctimer.c.obj
                0x000044e4                CTIMER2_DriverIRQHandler
 .text.CTIMER3_DriverIRQHandler
                0x000044f2        0xe CMakeFiles/led_blinky_peripheral_cm33_core0.elf.dir/home/brusli/Documents/Projects/NXP/main/sdks/main_testing_sdk/devices/MCXN947/drivers/fsl_ctimer.c.obj
                0x000044f2                CTIMER3_DriverIRQHandler
 .text.CTIMER4_DriverIRQHandler
                0x00004500        0xe CMakeFiles/led_blinky_peripheral_cm33_core0.elf.dir/home/brusli/Documents/Projects/NXP/main/sdks/main_testing_sdk/devices/MCXN947/drivers/fsl_ctimer.c.obj
                0x00004500                CTIMER4_DriverIRQHandler
 .text.CLOCK_EnableClock
                0x0000450e       0x94 CMakeFiles/led_blinky_peripheral_cm33_core0.elf.dir/home/brusli/Documents/Projects/NXP/main/sdks/main_testing_sdk/devices/MCXN947/drivers/fsl_gpio.c.obj
 .text.CLOCK_DisableClock
                0x000045a2       0xb8 CMakeFiles/led_blinky_peripheral_cm33_core0.elf.dir/home/brusli/Documents/Projects/NXP/main/sdks/main_testing_sdk/devices/MCXN947/drivers/fsl_gpio.c.obj
 .text.GPIO_PinWrite
                0x0000465a       0x36 CMakeFiles/led_blinky_peripheral_cm33_core0.elf.dir/home/brusli/Documents/Projects/NXP/main/sdks/main_testing_sdk/devices/MCXN947/drivers/fsl_gpio.c.obj
 .text.GPIO_GetInstance
                0x00004690       0x58 CMakeFiles/led_blinky_peripheral_cm33_core0.elf.dir/home/brusli/Documents/Projects/NXP/main/sdks/main_testing_sdk/devices/MCXN947/drivers/fsl_gpio.c.obj
 .text.GPIO_PortClockEnable
                0x000046e8       0x64 CMakeFiles/led_blinky_peripheral_cm33_core0.elf.dir/home/brusli/Documents/Projects/NXP/main/sdks/main_testing_sdk/devices/MCXN947/drivers/fsl_gpio.c.obj
 .text.GPIO_PinInit
                0x0000474c       0x78 CMakeFiles/led_blinky_peripheral_cm33_core0.elf.dir/home/brusli/Documents/Projects/NXP/main/sdks/main_testing_sdk/devices/MCXN947/drivers/fsl_gpio.c.obj
                0x0000474c                GPIO_PinInit
 .text.GPIO_GpioGetInterruptChannelFlags
                0x000047c4       0x3c CMakeFiles/led_blinky_peripheral_cm33_core0.elf.dir/home/brusli/Documents/Projects/NXP/main/sdks/main_testing_sdk/devices/MCXN947/drivers/fsl_gpio.c.obj
                0x000047c4                GPIO_GpioGetInterruptChannelFlags
 .text.GPIO_GpioClearInterruptChannelFlags
                0x00004800       0x40 CMakeFiles/led_blinky_peripheral_cm33_core0.elf.dir/home/brusli/Documents/Projects/NXP/main/sdks/main_testing_sdk/devices/MCXN947/drivers/fsl_gpio.c.obj
                0x00004800                GPIO_GpioClearInterruptChannelFlags
 .text.CLOCK_EnableClock
                0x00004840       0x94 CMakeFiles/led_blinky_peripheral_cm33_core0.elf.dir/home/brusli/Documents/Projects/NXP/main/sdks/main_testing_sdk/devices/MCXN947/drivers/fsl_lpadc.c.obj
 .text.RESET_ReleasePeripheralReset
                0x000048d4       0x16 CMakeFiles/led_blinky_peripheral_cm33_core0.elf.dir/home/brusli/Documents/Projects/NXP/main/sdks/main_testing_sdk/devices/MCXN947/drivers/fsl_lpadc.c.obj
 .text.LPADC_Enable
                0x000048ea       0x38 CMakeFiles/led_blinky_peripheral_cm33_core0.elf.dir/home/brusli/Documents/Projects/NXP/main/sdks/main_testing_sdk/devices/MCXN947/drivers/fsl_lpadc.c.obj
 .text.LPADC_DoResetFIFO0
                0x00004922       0x20 CMakeFiles/led_blinky_peripheral_cm33_core0.elf.dir/home/brusli/Documents/Projects/NXP/main/sdks/main_testing_sdk/devices/MCXN947/drivers/fsl_lpadc.c.obj
 .text.LPADC_DoResetFIFO1
                0x00004942       0x20 CMakeFiles/led_blinky_peripheral_cm33_core0.elf.dir/home/brusli/Documents/Projects/NXP/main/sdks/main_testing_sdk/devices/MCXN947/drivers/fsl_lpadc.c.obj
 .text.LPADC_DoResetConfig
                0x00004962       0x2c CMakeFiles/led_blinky_peripheral_cm33_core0.elf.dir/home/brusli/Documents/Projects/NXP/main/sdks/main_testing_sdk/devices/MCXN947/drivers/fsl_lpadc.c.obj
 *fill*         0x0000498e        0x2 
 .text.LPADC_GetInstance
                0x00004990       0x58 CMakeFiles/led_blinky_peripheral_cm33_core0.elf.dir/home/brusli/Documents/Projects/NXP/main/sdks/main_testing_sdk/devices/MCXN947/drivers/fsl_lpadc.c.obj
 .text.LPADC_Init
                0x000049e8      0x17c CMakeFiles/led_blinky_peripheral_cm33_core0.elf.dir/home/brusli/Documents/Projects/NXP/main/sdks/main_testing_sdk/devices/MCXN947/drivers/fsl_lpadc.c.obj
                0x000049e8                LPADC_Init
 .text.LPADC_GetConvResultBlocking
                0x00004b64       0x88 CMakeFiles/led_blinky_peripheral_cm33_core0.elf.dir/home/brusli/Documents/Projects/NXP/main/sdks/main_testing_sdk/devices/MCXN947/drivers/fsl_lpadc.c.obj
                0x00004b64                LPADC_GetConvResultBlocking
 .text.LPADC_SetConvTriggerConfig
                0x00004bec       0xa4 CMakeFiles/led_blinky_peripheral_cm33_core0.elf.dir/home/brusli/Documents/Projects/NXP/main/sdks/main_testing_sdk/devices/MCXN947/drivers/fsl_lpadc.c.obj
                0x00004bec                LPADC_SetConvTriggerConfig
 .text.LPADC_SetConvCommandConfig
                0x00004c90      0x180 CMakeFiles/led_blinky_peripheral_cm33_core0.elf.dir/home/brusli/Documents/Projects/NXP/main/sdks/main_testing_sdk/devices/MCXN947/drivers/fsl_lpadc.c.obj
                0x00004c90                LPADC_SetConvCommandConfig
 .text.CLOCK_EnableClock
                0x00004e10       0x94 CMakeFiles/led_blinky_peripheral_cm33_core0.elf.dir/home/brusli/Documents/Projects/NXP/main/sdks/main_testing_sdk/devices/MCXN947/drivers/fsl_lpflexcomm.c.obj
 .text.LP_FLEXCOMM_PeripheralIsPresent
                0x00004ea4       0x52 CMakeFiles/led_blinky_peripheral_cm33_core0.elf.dir/home/brusli/Documents/Projects/NXP/main/sdks/main_testing_sdk/devices/MCXN947/drivers/fsl_lpflexcomm.c.obj
 *fill*         0x00004ef6        0x2 
 .text.LP_FLEXCOMM_GetBaseAddress
                0x00004ef8       0x2c CMakeFiles/led_blinky_peripheral_cm33_core0.elf.dir/home/brusli/Documents/Projects/NXP/main/sdks/main_testing_sdk/devices/MCXN947/drivers/fsl_lpflexcomm.c.obj
                0x00004ef8                LP_FLEXCOMM_GetBaseAddress
 .text.LP_FLEXCOMM_GetInterruptStatus
                0x00004f24       0x28 CMakeFiles/led_blinky_peripheral_cm33_core0.elf.dir/home/brusli/Documents/Projects/NXP/main/sdks/main_testing_sdk/devices/MCXN947/drivers/fsl_lpflexcomm.c.obj
                0x00004f24                LP_FLEXCOMM_GetInterruptStatus
 .text.LP_FLEXCOMM_SetPeriph
                0x00004f4c       0xa0 CMakeFiles/led_blinky_peripheral_cm33_core0.elf.dir/home/brusli/Documents/Projects/NXP/main/sdks/main_testing_sdk/devices/MCXN947/drivers/fsl_lpflexcomm.c.obj
 .text.LP_FLEXCOMM_Init
                0x00004fec       0x64 CMakeFiles/led_blinky_peripheral_cm33_core0.elf.dir/home/brusli/Documents/Projects/NXP/main/sdks/main_testing_sdk/devices/MCXN947/drivers/fsl_lpflexcomm.c.obj
                0x00004fec                LP_FLEXCOMM_Init
 .text.LP_FLEXCOMM_CommonIRQHandler
                0x00005050       0xb8 CMakeFiles/led_blinky_peripheral_cm33_core0.elf.dir/home/brusli/Documents/Projects/NXP/main/sdks/main_testing_sdk/devices/MCXN947/drivers/fsl_lpflexcomm.c.obj
 .text.LP_FLEXCOMM0_DriverIRQHandler
                0x00005108        0xe CMakeFiles/led_blinky_peripheral_cm33_core0.elf.dir/home/brusli/Documents/Projects/NXP/main/sdks/main_testing_sdk/devices/MCXN947/drivers/fsl_lpflexcomm.c.obj
                0x00005108                LP_FLEXCOMM0_DriverIRQHandler
 .text.LP_FLEXCOMM1_DriverIRQHandler
                0x00005116        0xe CMakeFiles/led_blinky_peripheral_cm33_core0.elf.dir/home/brusli/Documents/Projects/NXP/main/sdks/main_testing_sdk/devices/MCXN947/drivers/fsl_lpflexcomm.c.obj
                0x00005116                LP_FLEXCOMM1_DriverIRQHandler
 .text.LP_FLEXCOMM2_DriverIRQHandler
                0x00005124        0xe CMakeFiles/led_blinky_peripheral_cm33_core0.elf.dir/home/brusli/Documents/Projects/NXP/main/sdks/main_testing_sdk/devices/MCXN947/drivers/fsl_lpflexcomm.c.obj
                0x00005124                LP_FLEXCOMM2_DriverIRQHandler
 .text.LP_FLEXCOMM3_DriverIRQHandler
                0x00005132        0xe CMakeFiles/led_blinky_peripheral_cm33_core0.elf.dir/home/brusli/Documents/Projects/NXP/main/sdks/main_testing_sdk/devices/MCXN947/drivers/fsl_lpflexcomm.c.obj
                0x00005132                LP_FLEXCOMM3_DriverIRQHandler
 .text.LP_FLEXCOMM4_DriverIRQHandler
                0x00005140        0xe CMakeFiles/led_blinky_peripheral_cm33_core0.elf.dir/home/brusli/Documents/Projects/NXP/main/sdks/main_testing_sdk/devices/MCXN947/drivers/fsl_lpflexcomm.c.obj
                0x00005140                LP_FLEXCOMM4_DriverIRQHandler
 .text.LP_FLEXCOMM5_DriverIRQHandler
                0x0000514e        0xe CMakeFiles/led_blinky_peripheral_cm33_core0.elf.dir/home/brusli/Documents/Projects/NXP/main/sdks/main_testing_sdk/devices/MCXN947/drivers/fsl_lpflexcomm.c.obj
                0x0000514e                LP_FLEXCOMM5_DriverIRQHandler
 .text.LP_FLEXCOMM6_DriverIRQHandler
                0x0000515c        0xe CMakeFiles/led_blinky_peripheral_cm33_core0.elf.dir/home/brusli/Documents/Projects/NXP/main/sdks/main_testing_sdk/devices/MCXN947/drivers/fsl_lpflexcomm.c.obj
                0x0000515c                LP_FLEXCOMM6_DriverIRQHandler
 .text.LP_FLEXCOMM7_DriverIRQHandler
                0x0000516a        0xe CMakeFiles/led_blinky_peripheral_cm33_core0.elf.dir/home/brusli/Documents/Projects/NXP/main/sdks/main_testing_sdk/devices/MCXN947/drivers/fsl_lpflexcomm.c.obj
                0x0000516a                LP_FLEXCOMM7_DriverIRQHandler
 .text.LP_FLEXCOMM8_DriverIRQHandler
                0x00005178        0xe CMakeFiles/led_blinky_peripheral_cm33_core0.elf.dir/home/brusli/Documents/Projects/NXP/main/sdks/main_testing_sdk/devices/MCXN947/drivers/fsl_lpflexcomm.c.obj
                0x00005178                LP_FLEXCOMM8_DriverIRQHandler
 .text.LP_FLEXCOMM9_DriverIRQHandler
                0x00005186        0xe CMakeFiles/led_blinky_peripheral_cm33_core0.elf.dir/home/brusli/Documents/Projects/NXP/main/sdks/main_testing_sdk/devices/MCXN947/drivers/fsl_lpflexcomm.c.obj
                0x00005186                LP_FLEXCOMM9_DriverIRQHandler
 .text.CLOCK_EnableClock
                0x00005194       0x94 CMakeFiles/led_blinky_peripheral_cm33_core0.elf.dir/home/brusli/Documents/Projects/NXP/main/sdks/main_testing_sdk/devices/MCXN947/drivers/fsl_lpi2c.c.obj
 .text.LPI2C_MasterReset
                0x00005228       0x20 CMakeFiles/led_blinky_peripheral_cm33_core0.elf.dir/home/brusli/Documents/Projects/NXP/main/sdks/main_testing_sdk/devices/MCXN947/drivers/fsl_lpi2c.c.obj
 .text.LPI2C_MasterEnable
                0x00005248       0x32 CMakeFiles/led_blinky_peripheral_cm33_core0.elf.dir/home/brusli/Documents/Projects/NXP/main/sdks/main_testing_sdk/devices/MCXN947/drivers/fsl_lpi2c.c.obj
 .text.LPI2C_MasterGetStatusFlags
                0x0000527a       0x18 CMakeFiles/led_blinky_peripheral_cm33_core0.elf.dir/home/brusli/Documents/Projects/NXP/main/sdks/main_testing_sdk/devices/MCXN947/drivers/fsl_lpi2c.c.obj
 .text.LPI2C_MasterClearStatusFlags
                0x00005292       0x1c CMakeFiles/led_blinky_peripheral_cm33_core0.elf.dir/home/brusli/Documents/Projects/NXP/main/sdks/main_testing_sdk/devices/MCXN947/drivers/fsl_lpi2c.c.obj
 .text.LPI2C_MasterSetWatermarks
                0x000052ae       0x2c CMakeFiles/led_blinky_peripheral_cm33_core0.elf.dir/home/brusli/Documents/Projects/NXP/main/sdks/main_testing_sdk/devices/MCXN947/drivers/fsl_lpi2c.c.obj
 .text.LPI2C_MasterGetFifoCounts
                0x000052da       0x3e CMakeFiles/led_blinky_peripheral_cm33_core0.elf.dir/home/brusli/Documents/Projects/NXP/main/sdks/main_testing_sdk/devices/MCXN947/drivers/fsl_lpi2c.c.obj
 .text.LPI2C_GetInstance
                0x00005318       0x58 CMakeFiles/led_blinky_peripheral_cm33_core0.elf.dir/home/brusli/Documents/Projects/NXP/main/sdks/main_testing_sdk/devices/MCXN947/drivers/fsl_lpi2c.c.obj
                0x00005318                LPI2C_GetInstance
 .text.LPI2C_GetCyclesForWidth
                0x00005370       0xa8 CMakeFiles/led_blinky_peripheral_cm33_core0.elf.dir/home/brusli/Documents/Projects/NXP/main/sdks/main_testing_sdk/devices/MCXN947/drivers/fsl_lpi2c.c.obj
 .text.LPI2C_MasterCheckAndClearError
                0x00005418       0x80 CMakeFiles/led_blinky_peripheral_cm33_core0.elf.dir/home/brusli/Documents/Projects/NXP/main/sdks/main_testing_sdk/devices/MCXN947/drivers/fsl_lpi2c.c.obj
                0x00005418                LPI2C_MasterCheckAndClearError
 .text.LPI2C_MasterWaitForTxReady
                0x00005498       0x52 CMakeFiles/led_blinky_peripheral_cm33_core0.elf.dir/home/brusli/Documents/Projects/NXP/main/sdks/main_testing_sdk/devices/MCXN947/drivers/fsl_lpi2c.c.obj
 .text.LPI2C_CheckForBusyBus
                0x000054ea       0x38 CMakeFiles/led_blinky_peripheral_cm33_core0.elf.dir/home/brusli/Documents/Projects/NXP/main/sdks/main_testing_sdk/devices/MCXN947/drivers/fsl_lpi2c.c.obj
                0x000054ea                LPI2C_CheckForBusyBus
 *fill*         0x00005522        0x2 
 .text.LPI2C_MasterGetDefaultConfig
                0x00005524       0x6c CMakeFiles/led_blinky_peripheral_cm33_core0.elf.dir/home/brusli/Documents/Projects/NXP/main/sdks/main_testing_sdk/devices/MCXN947/drivers/fsl_lpi2c.c.obj
                0x00005524                LPI2C_MasterGetDefaultConfig
 .text.LPI2C_MasterInit
                0x00005590      0x218 CMakeFiles/led_blinky_peripheral_cm33_core0.elf.dir/home/brusli/Documents/Projects/NXP/main/sdks/main_testing_sdk/devices/MCXN947/drivers/fsl_lpi2c.c.obj
                0x00005590                LPI2C_MasterInit
 .text.LPI2C_MasterSetBaudRate
                0x000057a8      0x2c4 CMakeFiles/led_blinky_peripheral_cm33_core0.elf.dir/home/brusli/Documents/Projects/NXP/main/sdks/main_testing_sdk/devices/MCXN947/drivers/fsl_lpi2c.c.obj
                0x000057a8                LPI2C_MasterSetBaudRate
 .text.LPI2C_MasterStart
                0x00005a6c       0x5c CMakeFiles/led_blinky_peripheral_cm33_core0.elf.dir/home/brusli/Documents/Projects/NXP/main/sdks/main_testing_sdk/devices/MCXN947/drivers/fsl_lpi2c.c.obj
                0x00005a6c                LPI2C_MasterStart
 .text.LPI2C_MasterStop
                0x00005ac8       0x62 CMakeFiles/led_blinky_peripheral_cm33_core0.elf.dir/home/brusli/Documents/Projects/NXP/main/sdks/main_testing_sdk/devices/MCXN947/drivers/fsl_lpi2c.c.obj
                0x00005ac8                LPI2C_MasterStop
 *fill*         0x00005b2a        0x2 
 .text.LPI2C_MasterSend
                0x00005b2c       0x68 CMakeFiles/led_blinky_peripheral_cm33_core0.elf.dir/home/brusli/Documents/Projects/NXP/main/sdks/main_testing_sdk/devices/MCXN947/drivers/fsl_lpi2c.c.obj
                0x00005b2c                LPI2C_MasterSend
 .text.LPUART_SoftwareReset
                0x00005b94       0x2c CMakeFiles/led_blinky_peripheral_cm33_core0.elf.dir/home/brusli/Documents/Projects/NXP/main/sdks/main_testing_sdk/devices/MCXN947/drivers/fsl_lpuart.c.obj
 .text.LPUART_GetInstance
                0x00005bc0       0x58 CMakeFiles/led_blinky_peripheral_cm33_core0.elf.dir/home/brusli/Documents/Projects/NXP/main/sdks/main_testing_sdk/devices/MCXN947/drivers/fsl_lpuart.c.obj
                0x00005bc0                LPUART_GetInstance
 .text.LPUART_Init
                0x00005c18      0x470 CMakeFiles/led_blinky_peripheral_cm33_core0.elf.dir/home/brusli/Documents/Projects/NXP/main/sdks/main_testing_sdk/devices/MCXN947/drivers/fsl_lpuart.c.obj
                0x00005c18                LPUART_Init
 .text.LPUART_GetDefaultConfig
                0x00006088       0x9c CMakeFiles/led_blinky_peripheral_cm33_core0.elf.dir/home/brusli/Documents/Projects/NXP/main/sdks/main_testing_sdk/devices/MCXN947/drivers/fsl_lpuart.c.obj
                0x00006088                LPUART_GetDefaultConfig
 .text.LPUART_GetStatusFlags
                0x00006124       0x60 CMakeFiles/led_blinky_peripheral_cm33_core0.elf.dir/home/brusli/Documents/Projects/NXP/main/sdks/main_testing_sdk/devices/MCXN947/drivers/fsl_lpuart.c.obj
                0x00006124                LPUART_GetStatusFlags
 .text.LPUART_ClearStatusFlags
                0x00006184       0x94 CMakeFiles/led_blinky_peripheral_cm33_core0.elf.dir/home/brusli/Documents/Projects/NXP/main/sdks/main_testing_sdk/devices/MCXN947/drivers/fsl_lpuart.c.obj
                0x00006184                LPUART_ClearStatusFlags
 .text.LPUART_WriteBlocking
                0x00006218       0x78 CMakeFiles/led_blinky_peripheral_cm33_core0.elf.dir/home/brusli/Documents/Projects/NXP/main/sdks/main_testing_sdk/devices/MCXN947/drivers/fsl_lpuart.c.obj
                0x00006218                LPUART_WriteBlocking
 .text.LPUART_ReadBlocking
                0x00006290      0x174 CMakeFiles/led_blinky_peripheral_cm33_core0.elf.dir/home/brusli/Documents/Projects/NXP/main/sdks/main_testing_sdk/devices/MCXN947/drivers/fsl_lpuart.c.obj
                0x00006290                LPUART_ReadBlocking
 .text.SPC_GetActiveModeBandgapMode
                0x00006404       0x22 CMakeFiles/led_blinky_peripheral_cm33_core0.elf.dir/home/brusli/Documents/Projects/NXP/main/sdks/main_testing_sdk/devices/MCXN947/drivers/fsl_spc.c.obj
 .text.SPC_GetActiveModeVoltageDetectStatus
                0x00006426       0x22 CMakeFiles/led_blinky_peripheral_cm33_core0.elf.dir/home/brusli/Documents/Projects/NXP/main/sdks/main_testing_sdk/devices/MCXN947/drivers/fsl_spc.c.obj
 .text.SPC_GetActiveModeCoreLDOVDDVoltageLevel
                0x00006448       0x22 CMakeFiles/led_blinky_peripheral_cm33_core0.elf.dir/home/brusli/Documents/Projects/NXP/main/sdks/main_testing_sdk/devices/MCXN947/drivers/fsl_spc.c.obj
 .text.SPC_GetActiveModeCoreLDODriveStrength
                0x0000646a       0x22 CMakeFiles/led_blinky_peripheral_cm33_core0.elf.dir/home/brusli/Documents/Projects/NXP/main/sdks/main_testing_sdk/devices/MCXN947/drivers/fsl_spc.c.obj
 .text.SPC_SetActiveModeDCDCRegulatorVoltageLevel
                0x0000648c       0x32 CMakeFiles/led_blinky_peripheral_cm33_core0.elf.dir/home/brusli/Documents/Projects/NXP/main/sdks/main_testing_sdk/devices/MCXN947/drivers/fsl_spc.c.obj
 *fill*         0x000064be        0x2 
 .text.SPC_SetSRAMOperateVoltage
                0x000064c0       0x68 CMakeFiles/led_blinky_peripheral_cm33_core0.elf.dir/home/brusli/Documents/Projects/NXP/main/sdks/main_testing_sdk/devices/MCXN947/drivers/fsl_spc.c.obj
                0x000064c0                SPC_SetSRAMOperateVoltage
 .text.SPC_SetActiveModeCoreLDORegulatorConfig
                0x00006528       0xa4 CMakeFiles/led_blinky_peripheral_cm33_core0.elf.dir/home/brusli/Documents/Projects/NXP/main/sdks/main_testing_sdk/devices/MCXN947/drivers/fsl_spc.c.obj
                0x00006528                SPC_SetActiveModeCoreLDORegulatorConfig
 .text.SPC_SetActiveModeCoreLDORegulatorVoltageLevel
                0x000065cc       0x60 CMakeFiles/led_blinky_peripheral_cm33_core0.elf.dir/home/brusli/Documents/Projects/NXP/main/sdks/main_testing_sdk/devices/MCXN947/drivers/fsl_spc.c.obj
                0x000065cc                SPC_SetActiveModeCoreLDORegulatorVoltageLevel
 .text.SPC_SetActiveModeCoreLDORegulatorDriveStrength
                0x0000662c       0x5e CMakeFiles/led_blinky_peripheral_cm33_core0.elf.dir/home/brusli/Documents/Projects/NXP/main/sdks/main_testing_sdk/devices/MCXN947/drivers/fsl_spc.c.obj
                0x0000662c                SPC_SetActiveModeCoreLDORegulatorDriveStrength
 *fill*         0x0000668a        0x2 
 .text.SPC_SetActiveModeDCDCRegulatorConfig
                0x0000668c       0x78 CMakeFiles/led_blinky_peripheral_cm33_core0.elf.dir/home/brusli/Documents/Projects/NXP/main/sdks/main_testing_sdk/devices/MCXN947/drivers/fsl_spc.c.obj
                0x0000668c                SPC_SetActiveModeDCDCRegulatorConfig
 .text.SPC_SetActiveModeDCDCRegulatorDriveStrength
                0x00006704       0x48 CMakeFiles/led_blinky_peripheral_cm33_core0.elf.dir/home/brusli/Documents/Projects/NXP/main/sdks/main_testing_sdk/devices/MCXN947/drivers/fsl_spc.c.obj
                0x00006704                SPC_SetActiveModeDCDCRegulatorDriveStrength
 .text.RESET_SetPeripheralReset
                0x0000674c       0x78 CMakeFiles/led_blinky_peripheral_cm33_core0.elf.dir/home/brusli/Documents/Projects/NXP/main/sdks/main_testing_sdk/devices/MCXN947/drivers/fsl_reset.c.obj
                0x0000674c                RESET_SetPeripheralReset
 .text.RESET_ClearPeripheralReset
                0x000067c4       0x78 CMakeFiles/led_blinky_peripheral_cm33_core0.elf.dir/home/brusli/Documents/Projects/NXP/main/sdks/main_testing_sdk/devices/MCXN947/drivers/fsl_reset.c.obj
                0x000067c4                RESET_ClearPeripheralReset
 .text.RESET_PeripheralReset
                0x0000683c       0x24 CMakeFiles/led_blinky_peripheral_cm33_core0.elf.dir/home/brusli/Documents/Projects/NXP/main/sdks/main_testing_sdk/devices/MCXN947/drivers/fsl_reset.c.obj
                0x0000683c                RESET_PeripheralReset
 .text.CLOCK_EnableClock
                0x00006860       0x94 CMakeFiles/led_blinky_peripheral_cm33_core0.elf.dir/home/brusli/Documents/Projects/NXP/main/sdks/main_testing_sdk/devices/MCXN947/drivers/fsl_vref.c.obj
 .text.VREF_GetInstance
                0x000068f4       0x54 CMakeFiles/led_blinky_peripheral_cm33_core0.elf.dir/home/brusli/Documents/Projects/NXP/main/sdks/main_testing_sdk/devices/MCXN947/drivers/fsl_vref.c.obj
 .text.VREF_Init
                0x00006948       0xe8 CMakeFiles/led_blinky_peripheral_cm33_core0.elf.dir/home/brusli/Documents/Projects/NXP/main/sdks/main_testing_sdk/devices/MCXN947/drivers/fsl_vref.c.obj
                0x00006948                VREF_Init
 .text._sbrk    0x00006a30       0x68 CMakeFiles/led_blinky_peripheral_cm33_core0.elf.dir/home/brusli/Documents/Projects/NXP/main/sdks/main_testing_sdk/devices/MCXN947/utilities/fsl_sbrk.c.obj
                0x00006a30                _sbrk
 .text.fsl_assert_hook
                0x00006a98       0x1a CMakeFiles/led_blinky_peripheral_cm33_core0.elf.dir/home/brusli/Documents/Projects/NXP/main/sdks/main_testing_sdk/devices/MCXN947/utilities/debug_console_lite/fsl_assert.c.obj
                0x00006a98                fsl_assert_hook
 *fill*         0x00006ab2        0x2 
 .text.__assert_func
                0x00006ab4       0x40 CMakeFiles/led_blinky_peripheral_cm33_core0.elf.dir/home/brusli/Documents/Projects/NXP/main/sdks/main_testing_sdk/devices/MCXN947/utilities/debug_console_lite/fsl_assert.c.obj
                0x00006ab4                __assert_func
 .text.DbgConsole_Init
                0x00006af4       0x88 CMakeFiles/led_blinky_peripheral_cm33_core0.elf.dir/home/brusli/Documents/Projects/NXP/main/sdks/main_testing_sdk/devices/MCXN947/utilities/debug_console_lite/fsl_debug_console.c.obj
                0x00006af4                DbgConsole_Init
 .text.DbgConsole_Printf
                0x00006b7c       0x2c CMakeFiles/led_blinky_peripheral_cm33_core0.elf.dir/home/brusli/Documents/Projects/NXP/main/sdks/main_testing_sdk/devices/MCXN947/utilities/debug_console_lite/fsl_debug_console.c.obj
                0x00006b7c                DbgConsole_Printf
 .text.DbgConsole_Vprintf
                0x00006ba8       0x3c CMakeFiles/led_blinky_peripheral_cm33_core0.elf.dir/home/brusli/Documents/Projects/NXP/main/sdks/main_testing_sdk/devices/MCXN947/utilities/debug_console_lite/fsl_debug_console.c.obj
                0x00006ba8                DbgConsole_Vprintf
 .text.DbgConsole_Putchar
                0x00006be4       0x30 CMakeFiles/led_blinky_peripheral_cm33_core0.elf.dir/home/brusli/Documents/Projects/NXP/main/sdks/main_testing_sdk/devices/MCXN947/utilities/debug_console_lite/fsl_debug_console.c.obj
                0x00006be4                DbgConsole_Putchar
 .text.DbgConsole_PrintfPaddingCharacter
                0x00006c14       0x40 CMakeFiles/led_blinky_peripheral_cm33_core0.elf.dir/home/brusli/Documents/Projects/NXP/main/sdks/main_testing_sdk/devices/MCXN947/utilities/debug_console_lite/fsl_debug_console.c.obj
 .text.DbgConsole_ConvertRadixNumToString
                0x00006c54       0xc2 CMakeFiles/led_blinky_peripheral_cm33_core0.elf.dir/home/brusli/Documents/Projects/NXP/main/sdks/main_testing_sdk/devices/MCXN947/utilities/debug_console_lite/fsl_debug_console.c.obj
 *fill*         0x00006d16        0x2 
 .text.DbgConsole_PrintfFormattedData
                0x00006d18      0x3e0 CMakeFiles/led_blinky_peripheral_cm33_core0.elf.dir/home/brusli/Documents/Projects/NXP/main/sdks/main_testing_sdk/devices/MCXN947/utilities/debug_console_lite/fsl_debug_console.c.obj
 .text.__fixunssfdi
                0x000070f8       0x40 /home/brusli/.mcuxpressotools/arm-gnu-toolchain-14.2.rel1-x86_64-arm-none-eabi/bin/../lib/gcc/arm-none-eabi/14.2.1/thumb/v8-m.main+fp/hard/libgcc.a(_fixunssfdi.o)
                0x000070f8                __aeabi_f2ulz
                0x000070f8                __fixunssfdi
 .text.__udivmoddi4
                0x00007138      0x34c /home/brusli/.mcuxpressotools/arm-gnu-toolchain-14.2.rel1-x86_64-arm-none-eabi/bin/../lib/gcc/arm-none-eabi/14.2.1/thumb/v8-m.main+fp/hard/libgcc.a(_udivmoddi4.o)
                0x00007138                __udivmoddi4
 .text.exit     0x00007484       0x24 /home/brusli/.mcuxpressotools/arm-gnu-toolchain-14.2.rel1-x86_64-arm-none-eabi/bin/../lib/gcc/arm-none-eabi/14.2.1/../../../../arm-none-eabi/lib/thumb/v8-m.main+fp/hard/libc_nano.a(libc_a-exit.o)
                0x00007484                exit
 .text.sbrk_aligned
                0x000074a8       0x44 /home/brusli/.mcuxpressotools/arm-gnu-toolchain-14.2.rel1-x86_64-arm-none-eabi/bin/../lib/gcc/arm-none-eabi/14.2.1/../../../../arm-none-eabi/lib/thumb/v8-m.main+fp/hard/libc_nano.a(libc_a-mallocr.o)
 .text._malloc_r
                0x000074ec      0x100 /home/brusli/.mcuxpressotools/arm-gnu-toolchain-14.2.rel1-x86_64-arm-none-eabi/bin/../lib/gcc/arm-none-eabi/14.2.1/../../../../arm-none-eabi/lib/thumb/v8-m.main+fp/hard/libc_nano.a(libc_a-mallocr.o)
                0x000074ec                _malloc_r
 .text.__malloc_lock
                0x000075ec        0xc /home/brusli/.mcuxpressotools/arm-gnu-toolchain-14.2.rel1-x86_64-arm-none-eabi/bin/../lib/gcc/arm-none-eabi/14.2.1/../../../../arm-none-eabi/lib/thumb/v8-m.main+fp/hard/libc_nano.a(libc_a-mlock.o)
                0x000075ec                __malloc_lock
 .text.__malloc_unlock
                0x000075f8        0xc /home/brusli/.mcuxpressotools/arm-gnu-toolchain-14.2.rel1-x86_64-arm-none-eabi/bin/../lib/gcc/arm-none-eabi/14.2.1/../../../../arm-none-eabi/lib/thumb/v8-m.main+fp/hard/libc_nano.a(libc_a-mlock.o)
                0x000075f8                __malloc_unlock
 .text._vsnprintf_r
                0x00007604       0x5c /home/brusli/.mcuxpressotools/arm-gnu-toolchain-14.2.rel1-x86_64-arm-none-eabi/bin/../lib/gcc/arm-none-eabi/14.2.1/../../../../arm-none-eabi/lib/thumb/v8-m.main+fp/hard/libc_nano.a(libc_a-vsnprintf.o)
                0x00007604                _vsnprintf_r
                0x00007604                _vsniprintf_r
 .text.vsnprintf
                0x00007660       0x1c /home/brusli/.mcuxpressotools/arm-gnu-toolchain-14.2.rel1-x86_64-arm-none-eabi/bin/../lib/gcc/arm-none-eabi/14.2.1/../../../../arm-none-eabi/lib/thumb/v8-m.main+fp/hard/libc_nano.a(libc_a-vsnprintf.o)
                0x00007660                vsnprintf
                0x00007660                vsniprintf
 .text._vsprintf_r
                0x0000767c       0x2c /home/brusli/.mcuxpressotools/arm-gnu-toolchain-14.2.rel1-x86_64-arm-none-eabi/bin/../lib/gcc/arm-none-eabi/14.2.1/../../../../arm-none-eabi/lib/thumb/v8-m.main+fp/hard/libc_nano.a(libc_a-vsprintf.o)
                0x0000767c                _vsiprintf_r
                0x0000767c                _vsprintf_r
 .text.vsprintf
                0x000076a8       0x14 /home/brusli/.mcuxpressotools/arm-gnu-toolchain-14.2.rel1-x86_64-arm-none-eabi/bin/../lib/gcc/arm-none-eabi/14.2.1/../../../../arm-none-eabi/lib/thumb/v8-m.main+fp/hard/libc_nano.a(libc_a-vsprintf.o)
                0x000076a8                vsprintf
                0x000076a8                vsiprintf
 .text.memset   0x000076bc       0x10 /home/brusli/.mcuxpressotools/arm-gnu-toolchain-14.2.rel1-x86_64-arm-none-eabi/bin/../lib/gcc/arm-none-eabi/14.2.1/../../../../arm-none-eabi/lib/thumb/v8-m.main+fp/hard/libc_nano.a(libc_a-memset.o)
                0x000076bc                memset
 .text._sbrk_r  0x000076cc       0x20 /home/brusli/.mcuxpressotools/arm-gnu-toolchain-14.2.rel1-x86_64-arm-none-eabi/bin/../lib/gcc/arm-none-eabi/14.2.1/../../../../arm-none-eabi/lib/thumb/v8-m.main+fp/hard/libc_nano.a(libc_a-sbrkr.o)
                0x000076cc                _sbrk_r
 .text.__errno  0x000076ec        0xc /home/brusli/.mcuxpressotools/arm-gnu-toolchain-14.2.rel1-x86_64-arm-none-eabi/bin/../lib/gcc/arm-none-eabi/14.2.1/../../../../arm-none-eabi/lib/thumb/v8-m.main+fp/hard/libc_nano.a(libc_a-errno.o)
                0x000076ec                __errno
 .text.__libc_init_array
                0x000076f8       0x48 /home/brusli/.mcuxpressotools/arm-gnu-toolchain-14.2.rel1-x86_64-arm-none-eabi/bin/../lib/gcc/arm-none-eabi/14.2.1/../../../../arm-none-eabi/lib/thumb/v8-m.main+fp/hard/libc_nano.a(libc_a-init.o)
                0x000076f8                __libc_init_array
 .text.__retarget_lock_acquire_recursive
                0x00007740        0x2 /home/brusli/.mcuxpressotools/arm-gnu-toolchain-14.2.rel1-x86_64-arm-none-eabi/bin/../lib/gcc/arm-none-eabi/14.2.1/../../../../arm-none-eabi/lib/thumb/v8-m.main+fp/hard/libc_nano.a(libc_a-lock.o)
                0x00007740                __retarget_lock_acquire_recursive
 .text.__retarget_lock_release_recursive
                0x00007742        0x2 /home/brusli/.mcuxpressotools/arm-gnu-toolchain-14.2.rel1-x86_64-arm-none-eabi/bin/../lib/gcc/arm-none-eabi/14.2.1/../../../../arm-none-eabi/lib/thumb/v8-m.main+fp/hard/libc_nano.a(libc_a-lock.o)
                0x00007742                __retarget_lock_release_recursive
 .text._free_r  0x00007744       0x94 /home/brusli/.mcuxpressotools/arm-gnu-toolchain-14.2.rel1-x86_64-arm-none-eabi/bin/../lib/gcc/arm-none-eabi/14.2.1/../../../../arm-none-eabi/lib/thumb/v8-m.main+fp/hard/libc_nano.a(libc_a-freer.o)
                0x00007744                _free_r
 .text.__ssputs_r
                0x000077d8       0xc0 /home/brusli/.mcuxpressotools/arm-gnu-toolchain-14.2.rel1-x86_64-arm-none-eabi/bin/../lib/gcc/arm-none-eabi/14.2.1/../../../../arm-none-eabi/lib/thumb/v8-m.main+fp/hard/libc_nano.a(libc_a-nano-svfprintf.o)
                0x000077d8                __ssputs_r
 .text._svfprintf_r
                0x00007898      0x1f8 /home/brusli/.mcuxpressotools/arm-gnu-toolchain-14.2.rel1-x86_64-arm-none-eabi/bin/../lib/gcc/arm-none-eabi/14.2.1/../../../../arm-none-eabi/lib/thumb/v8-m.main+fp/hard/libc_nano.a(libc_a-nano-svfprintf.o)
                0x00007898                _svfprintf_r
                0x00007898                _svfiprintf_r
 .text._printf_common
                0x00007a90       0xe4 /home/brusli/.mcuxpressotools/arm-gnu-toolchain-14.2.rel1-x86_64-arm-none-eabi/bin/../lib/gcc/arm-none-eabi/14.2.1/../../../../arm-none-eabi/lib/thumb/v8-m.main+fp/hard/libc_nano.a(libc_a-nano-vfprintf_i.o)
                0x00007a90                _printf_common
 .text._printf_i
                0x00007b74      0x240 /home/brusli/.mcuxpressotools/arm-gnu-toolchain-14.2.rel1-x86_64-arm-none-eabi/bin/../lib/gcc/arm-none-eabi/14.2.1/../../../../arm-none-eabi/lib/thumb/v8-m.main+fp/hard/libc_nano.a(libc_a-nano-vfprintf_i.o)
                0x00007b74                _printf_i
 .text.memmove  0x00007db4       0x32 /home/brusli/.mcuxpressotools/arm-gnu-toolchain-14.2.rel1-x86_64-arm-none-eabi/bin/../lib/gcc/arm-none-eabi/14.2.1/../../../../arm-none-eabi/lib/thumb/v8-m.main+fp/hard/libc_nano.a(libc_a-memmove.o)
                0x00007db4                memmove
 .text.memchr   0x00007de6       0x1c /home/brusli/.mcuxpressotools/arm-gnu-toolchain-14.2.rel1-x86_64-arm-none-eabi/bin/../lib/gcc/arm-none-eabi/14.2.1/../../../../arm-none-eabi/lib/thumb/v8-m.main+fp/hard/libc_nano.a(libc_a-memchr-stub.o)
                0x00007de6                memchr
 .text._realloc_r
                0x00007e02       0x5c /home/brusli/.mcuxpressotools/arm-gnu-toolchain-14.2.rel1-x86_64-arm-none-eabi/bin/../lib/gcc/arm-none-eabi/14.2.1/../../../../arm-none-eabi/lib/thumb/v8-m.main+fp/hard/libc_nano.a(libc_a-reallocr.o)
                0x00007e02                _realloc_r
 .text._malloc_usable_size_r
                0x00007e5e       0x10 /home/brusli/.mcuxpressotools/arm-gnu-toolchain-14.2.rel1-x86_64-arm-none-eabi/bin/../lib/gcc/arm-none-eabi/14.2.1/../../../../arm-none-eabi/lib/thumb/v8-m.main+fp/hard/libc_nano.a(libc_a-msizer.o)
                0x00007e5e                _malloc_usable_size_r
 .text._exit    0x00007e6e        0x2 /home/brusli/.mcuxpressotools/arm-gnu-toolchain-14.2.rel1-x86_64-arm-none-eabi/bin/../lib/gcc/arm-none-eabi/14.2.1/../../../../arm-none-eabi/lib/thumb/v8-m.main+fp/hard/libcr_newlib_nohost.a(_exit.o)
                0x00007e6e                _exit
 *(.rodata)
 .rodata        0x00007e70      0x1db CMakeFiles/led_blinky_peripheral_cm33_core0.elf.dir/home/brusli/Documents/Projects/NXP/main/MCX_LAB_6_OLED/MCX_LAB_6_OLED/led_blinky.c.obj
 *fill*         0x0000804b        0x1 
 .rodata        0x0000804c        0xa CMakeFiles/led_blinky_peripheral_cm33_core0.elf.dir/home/brusli/Documents/Projects/NXP/main/MCX_LAB_6_OLED/MCX_LAB_6_OLED/clock_config.c.obj
 *fill*         0x00008056        0x2 
 .rodata        0x00008058       0xda CMakeFiles/led_blinky_peripheral_cm33_core0.elf.dir/home/brusli/Documents/Projects/NXP/main/MCX_LAB_6_OLED/MCX_LAB_6_OLED/pin_mux.c.obj
 *fill*         0x00008132        0x2 
 .rodata        0x00008134       0x1f CMakeFiles/led_blinky_peripheral_cm33_core0.elf.dir/home/brusli/Documents/Projects/NXP/main/MCX_LAB_6_OLED/MCX_LAB_6_OLED/oled.c.obj
 *fill*         0x00008153        0x1 
 .rodata        0x00008154      0x128 CMakeFiles/led_blinky_peripheral_cm33_core0.elf.dir/home/brusli/Documents/Projects/NXP/main/sdks/main_testing_sdk/components/uart/fsl_adapter_lpuart.c.obj
 .rodata        0x0000827c       0xbc CMakeFiles/led_blinky_peripheral_cm33_core0.elf.dir/home/brusli/Documents/Projects/NXP/main/sdks/main_testing_sdk/devices/MCXN947/drivers/fsl_common_arm.c.obj
 .rodata        0x00008338       0xb9 CMakeFiles/led_blinky_peripheral_cm33_core0.elf.dir/home/brusli/Documents/Projects/NXP/main/sdks/main_testing_sdk/devices/MCXN947/drivers/fsl_ctimer.c.obj
 *fill*         0x000083f1        0x3 
 .rodata        0x000083f4       0xcd CMakeFiles/led_blinky_peripheral_cm33_core0.elf.dir/home/brusli/Documents/Projects/NXP/main/sdks/main_testing_sdk/devices/MCXN947/drivers/fsl_gpio.c.obj
 *fill*         0x000084c1        0x3 
 .rodata        0x000084c4      0x2a0 CMakeFiles/led_blinky_peripheral_cm33_core0.elf.dir/home/brusli/Documents/Projects/NXP/main/sdks/main_testing_sdk/devices/MCXN947/drivers/fsl_lpadc.c.obj
 .rodata        0x00008764       0xf6 CMakeFiles/led_blinky_peripheral_cm33_core0.elf.dir/home/brusli/Documents/Projects/NXP/main/sdks/main_testing_sdk/devices/MCXN947/drivers/fsl_lpflexcomm.c.obj
 *fill*         0x0000885a        0x2 
 .rodata        0x0000885c      0x189 CMakeFiles/led_blinky_peripheral_cm33_core0.elf.dir/home/brusli/Documents/Projects/NXP/main/sdks/main_testing_sdk/devices/MCXN947/drivers/fsl_lpi2c.c.obj
 *fill*         0x000089e5        0x3 
 .rodata        0x000089e8      0x21a CMakeFiles/led_blinky_peripheral_cm33_core0.elf.dir/home/brusli/Documents/Projects/NXP/main/sdks/main_testing_sdk/devices/MCXN947/drivers/fsl_lpuart.c.obj
 *fill*         0x00008c02        0x2 
 .rodata        0x00008c04       0xb3 CMakeFiles/led_blinky_peripheral_cm33_core0.elf.dir/home/brusli/Documents/Projects/NXP/main/sdks/main_testing_sdk/devices/MCXN947/drivers/fsl_spc.c.obj
 *fill*         0x00008cb7        0x1 
 .rodata        0x00008cb8       0x73 CMakeFiles/led_blinky_peripheral_cm33_core0.elf.dir/home/brusli/Documents/Projects/NXP/main/sdks/main_testing_sdk/devices/MCXN947/drivers/fsl_reset.c.obj
 *fill*         0x00008d2b        0x1 
 .rodata        0x00008d2c       0xa7 CMakeFiles/led_blinky_peripheral_cm33_core0.elf.dir/home/brusli/Documents/Projects/NXP/main/sdks/main_testing_sdk/devices/MCXN947/drivers/fsl_vref.c.obj
 *fill*         0x00008dd3        0x1 
 .rodata        0x00008dd4       0x3e CMakeFiles/led_blinky_peripheral_cm33_core0.elf.dir/home/brusli/Documents/Projects/NXP/main/sdks/main_testing_sdk/devices/MCXN947/utilities/debug_console_lite/fsl_assert.c.obj
 *(.rodata*)
 *fill*         0x00008e12        0x2 
 .rodata.VREF0_config
                0x00008e14        0x6 CMakeFiles/led_blinky_peripheral_cm33_core0.elf.dir/home/brusli/Documents/Projects/NXP/main/MCX_LAB_6_OLED/MCX_LAB_6_OLED/peripherals.c.obj
                0x00008e14                VREF0_config
 *fill*         0x00008e1a        0x2 
 .rodata.ADC0_config
                0x00008e1c       0x18 CMakeFiles/led_blinky_peripheral_cm33_core0.elf.dir/home/brusli/Documents/Projects/NXP/main/MCX_LAB_6_OLED/MCX_LAB_6_OLED/peripherals.c.obj
                0x00008e1c                ADC0_config
 .rodata.CTIMER0_config
                0x00008e34        0x8 CMakeFiles/led_blinky_peripheral_cm33_core0.elf.dir/home/brusli/Documents/Projects/NXP/main/MCX_LAB_6_OLED/MCX_LAB_6_OLED/peripherals.c.obj
                0x00008e34                CTIMER0_config
 .rodata.CTIMER0_Match_0_config
                0x00008e3c        0xc CMakeFiles/led_blinky_peripheral_cm33_core0.elf.dir/home/brusli/Documents/Projects/NXP/main/MCX_LAB_6_OLED/MCX_LAB_6_OLED/peripherals.c.obj
                0x00008e3c                CTIMER0_Match_0_config
 .rodata.CTIMER1_config
                0x00008e48        0x8 CMakeFiles/led_blinky_peripheral_cm33_core0.elf.dir/home/brusli/Documents/Projects/NXP/main/MCX_LAB_6_OLED/MCX_LAB_6_OLED/peripherals.c.obj
                0x00008e48                CTIMER1_config
 .rodata.CTIMER1_Match_0_config
                0x00008e50        0xc CMakeFiles/led_blinky_peripheral_cm33_core0.elf.dir/home/brusli/Documents/Projects/NXP/main/MCX_LAB_6_OLED/MCX_LAB_6_OLED/peripherals.c.obj
                0x00008e50                CTIMER1_Match_0_config
 .rodata.__func__.1
                0x00008e5c       0x12 CMakeFiles/led_blinky_peripheral_cm33_core0.elf.dir/home/brusli/Documents/Projects/NXP/main/MCX_LAB_6_OLED/MCX_LAB_6_OLED/pin_mux.c.obj
 *fill*         0x00008e6e        0x2 
 .rodata.__func__.0
                0x00008e70       0x1b CMakeFiles/led_blinky_peripheral_cm33_core0.elf.dir/home/brusli/Documents/Projects/NXP/main/MCX_LAB_6_OLED/MCX_LAB_6_OLED/pin_mux.c.obj
 *fill*         0x00008e8b        0x1 
 .rodata.font   0x00008e8c      0x600 CMakeFiles/led_blinky_peripheral_cm33_core0.elf.dir/home/brusli/Documents/Projects/NXP/main/MCX_LAB_6_OLED/MCX_LAB_6_OLED/oled.c.obj
                0x00008e8c                font
 .rodata.s_LpuartAdapterBase
                0x0000948c       0x28 CMakeFiles/led_blinky_peripheral_cm33_core0.elf.dir/home/brusli/Documents/Projects/NXP/main/sdks/main_testing_sdk/components/uart/fsl_adapter_lpuart.c.obj
 .rodata.__func__.4
                0x000094b4        0xd CMakeFiles/led_blinky_peripheral_cm33_core0.elf.dir/home/brusli/Documents/Projects/NXP/main/sdks/main_testing_sdk/components/uart/fsl_adapter_lpuart.c.obj
 *fill*         0x000094c1        0x3 
 .rodata.__func__.2
                0x000094c4       0x18 CMakeFiles/led_blinky_peripheral_cm33_core0.elf.dir/home/brusli/Documents/Projects/NXP/main/sdks/main_testing_sdk/components/uart/fsl_adapter_lpuart.c.obj
 .rodata.__func__.1
                0x000094dc       0x15 CMakeFiles/led_blinky_peripheral_cm33_core0.elf.dir/home/brusli/Documents/Projects/NXP/main/sdks/main_testing_sdk/components/uart/fsl_adapter_lpuart.c.obj
 *fill*         0x000094f1        0x3 
 .rodata.__func__.0
                0x000094f4       0x13 CMakeFiles/led_blinky_peripheral_cm33_core0.elf.dir/home/brusli/Documents/Projects/NXP/main/sdks/main_testing_sdk/devices/MCXN947/drivers/fsl_common_arm.c.obj
 *fill*         0x00009507        0x1 
 .rodata.s_ctimerBases
                0x00009508       0x14 CMakeFiles/led_blinky_peripheral_cm33_core0.elf.dir/home/brusli/Documents/Projects/NXP/main/sdks/main_testing_sdk/devices/MCXN947/drivers/fsl_ctimer.c.obj
 .rodata.s_ctimerClocks
                0x0000951c        0xa CMakeFiles/led_blinky_peripheral_cm33_core0.elf.dir/home/brusli/Documents/Projects/NXP/main/sdks/main_testing_sdk/devices/MCXN947/drivers/fsl_ctimer.c.obj
 *fill*         0x00009526        0x2 
 .rodata.s_ctimerResets
                0x00009528       0x14 CMakeFiles/led_blinky_peripheral_cm33_core0.elf.dir/home/brusli/Documents/Projects/NXP/main/sdks/main_testing_sdk/devices/MCXN947/drivers/fsl_ctimer.c.obj
 .rodata.s_ctimerIRQ
                0x0000953c        0xa CMakeFiles/led_blinky_peripheral_cm33_core0.elf.dir/home/brusli/Documents/Projects/NXP/main/sdks/main_testing_sdk/devices/MCXN947/drivers/fsl_ctimer.c.obj
 *fill*         0x00009546        0x2 
 .rodata.__func__.4
                0x00009548       0x13 CMakeFiles/led_blinky_peripheral_cm33_core0.elf.dir/home/brusli/Documents/Projects/NXP/main/sdks/main_testing_sdk/devices/MCXN947/drivers/fsl_ctimer.c.obj
 *fill*         0x0000955b        0x1 
 .rodata.__func__.3
                0x0000955c        0xc CMakeFiles/led_blinky_peripheral_cm33_core0.elf.dir/home/brusli/Documents/Projects/NXP/main/sdks/main_testing_sdk/devices/MCXN947/drivers/fsl_ctimer.c.obj
 .rodata.s_gpioBases
                0x00009568       0x30 CMakeFiles/led_blinky_peripheral_cm33_core0.elf.dir/home/brusli/Documents/Projects/NXP/main/sdks/main_testing_sdk/devices/MCXN947/drivers/fsl_gpio.c.obj
 .rodata.s_gpioClockName
                0x00009598        0xc CMakeFiles/led_blinky_peripheral_cm33_core0.elf.dir/home/brusli/Documents/Projects/NXP/main/sdks/main_testing_sdk/devices/MCXN947/drivers/fsl_gpio.c.obj
 .rodata.__func__.4
                0x000095a4       0x11 CMakeFiles/led_blinky_peripheral_cm33_core0.elf.dir/home/brusli/Documents/Projects/NXP/main/sdks/main_testing_sdk/devices/MCXN947/drivers/fsl_gpio.c.obj
 *fill*         0x000095b5        0x3 
 .rodata.__func__.3
                0x000095b8       0x15 CMakeFiles/led_blinky_peripheral_cm33_core0.elf.dir/home/brusli/Documents/Projects/NXP/main/sdks/main_testing_sdk/devices/MCXN947/drivers/fsl_gpio.c.obj
 *fill*         0x000095cd        0x3 
 .rodata.__func__.2
                0x000095d0        0xd CMakeFiles/led_blinky_peripheral_cm33_core0.elf.dir/home/brusli/Documents/Projects/NXP/main/sdks/main_testing_sdk/devices/MCXN947/drivers/fsl_gpio.c.obj
 *fill*         0x000095dd        0x3 
 .rodata.__func__.1
                0x000095e0       0x22 CMakeFiles/led_blinky_peripheral_cm33_core0.elf.dir/home/brusli/Documents/Projects/NXP/main/sdks/main_testing_sdk/devices/MCXN947/drivers/fsl_gpio.c.obj
 *fill*         0x00009602        0x2 
 .rodata.__func__.0
                0x00009604       0x24 CMakeFiles/led_blinky_peripheral_cm33_core0.elf.dir/home/brusli/Documents/Projects/NXP/main/sdks/main_testing_sdk/devices/MCXN947/drivers/fsl_gpio.c.obj
 .rodata.s_lpadcBases
                0x00009628        0x8 CMakeFiles/led_blinky_peripheral_cm33_core0.elf.dir/home/brusli/Documents/Projects/NXP/main/sdks/main_testing_sdk/devices/MCXN947/drivers/fsl_lpadc.c.obj
 .rodata.s_lpadcClocks
                0x00009630        0x4 CMakeFiles/led_blinky_peripheral_cm33_core0.elf.dir/home/brusli/Documents/Projects/NXP/main/sdks/main_testing_sdk/devices/MCXN947/drivers/fsl_lpadc.c.obj
 .rodata.s_lpadcResets
                0x00009634        0x8 CMakeFiles/led_blinky_peripheral_cm33_core0.elf.dir/home/brusli/Documents/Projects/NXP/main/sdks/main_testing_sdk/devices/MCXN947/drivers/fsl_lpadc.c.obj
 .rodata.__func__.10
                0x0000963c       0x12 CMakeFiles/led_blinky_peripheral_cm33_core0.elf.dir/home/brusli/Documents/Projects/NXP/main/sdks/main_testing_sdk/devices/MCXN947/drivers/fsl_lpadc.c.obj
 *fill*         0x0000964e        0x2 
 .rodata.__func__.9
                0x00009650        0xb CMakeFiles/led_blinky_peripheral_cm33_core0.elf.dir/home/brusli/Documents/Projects/NXP/main/sdks/main_testing_sdk/devices/MCXN947/drivers/fsl_lpadc.c.obj
 *fill*         0x0000965b        0x1 
 .rodata.__func__.7
                0x0000965c       0x1c CMakeFiles/led_blinky_peripheral_cm33_core0.elf.dir/home/brusli/Documents/Projects/NXP/main/sdks/main_testing_sdk/devices/MCXN947/drivers/fsl_lpadc.c.obj
 .rodata.__func__.6
                0x00009678       0x1b CMakeFiles/led_blinky_peripheral_cm33_core0.elf.dir/home/brusli/Documents/Projects/NXP/main/sdks/main_testing_sdk/devices/MCXN947/drivers/fsl_lpadc.c.obj
 *fill*         0x00009693        0x1 
 .rodata.__func__.4
                0x00009694       0x1b CMakeFiles/led_blinky_peripheral_cm33_core0.elf.dir/home/brusli/Documents/Projects/NXP/main/sdks/main_testing_sdk/devices/MCXN947/drivers/fsl_lpadc.c.obj
 *fill*         0x000096af        0x1 
 .rodata.s_lpflexcommBaseAddrs
                0x000096b0       0x28 CMakeFiles/led_blinky_peripheral_cm33_core0.elf.dir/home/brusli/Documents/Projects/NXP/main/sdks/main_testing_sdk/devices/MCXN947/drivers/fsl_lpflexcomm.c.obj
 .rodata.s_lpflexcommBase
                0x000096d8       0x28 CMakeFiles/led_blinky_peripheral_cm33_core0.elf.dir/home/brusli/Documents/Projects/NXP/main/sdks/main_testing_sdk/devices/MCXN947/drivers/fsl_lpflexcomm.c.obj
 .rodata.s_lpflexcommClocks
                0x00009700       0x14 CMakeFiles/led_blinky_peripheral_cm33_core0.elf.dir/home/brusli/Documents/Projects/NXP/main/sdks/main_testing_sdk/devices/MCXN947/drivers/fsl_lpflexcomm.c.obj
 .rodata.s_lpflexcommResets
                0x00009714       0x28 CMakeFiles/led_blinky_peripheral_cm33_core0.elf.dir/home/brusli/Documents/Projects/NXP/main/sdks/main_testing_sdk/devices/MCXN947/drivers/fsl_lpflexcomm.c.obj
 .rodata.__func__.3
                0x0000973c       0x16 CMakeFiles/led_blinky_peripheral_cm33_core0.elf.dir/home/brusli/Documents/Projects/NXP/main/sdks/main_testing_sdk/devices/MCXN947/drivers/fsl_lpflexcomm.c.obj
 *fill*         0x00009752        0x2 
 .rodata.__func__.2
                0x00009754       0x11 CMakeFiles/led_blinky_peripheral_cm33_core0.elf.dir/home/brusli/Documents/Projects/NXP/main/sdks/main_testing_sdk/devices/MCXN947/drivers/fsl_lpflexcomm.c.obj
 *fill*         0x00009765        0x3 
 .rodata.kLpi2cBases
                0x00009768       0x28 CMakeFiles/led_blinky_peripheral_cm33_core0.elf.dir/home/brusli/Documents/Projects/NXP/main/sdks/main_testing_sdk/devices/MCXN947/drivers/fsl_lpi2c.c.obj
 .rodata.kLpi2cClocks
                0x00009790       0x14 CMakeFiles/led_blinky_peripheral_cm33_core0.elf.dir/home/brusli/Documents/Projects/NXP/main/sdks/main_testing_sdk/devices/MCXN947/drivers/fsl_lpi2c.c.obj
 .rodata.__func__.18
                0x000097a4       0x12 CMakeFiles/led_blinky_peripheral_cm33_core0.elf.dir/home/brusli/Documents/Projects/NXP/main/sdks/main_testing_sdk/devices/MCXN947/drivers/fsl_lpi2c.c.obj
 *fill*         0x000097b6        0x2 
 .rodata.__func__.17
                0x000097b8       0x18 CMakeFiles/led_blinky_peripheral_cm33_core0.elf.dir/home/brusli/Documents/Projects/NXP/main/sdks/main_testing_sdk/devices/MCXN947/drivers/fsl_lpi2c.c.obj
 .rodata.__func__.16
                0x000097d0       0x11 CMakeFiles/led_blinky_peripheral_cm33_core0.elf.dir/home/brusli/Documents/Projects/NXP/main/sdks/main_testing_sdk/devices/MCXN947/drivers/fsl_lpi2c.c.obj
 *fill*         0x000097e1        0x3 
 .rodata.__func__.14
                0x000097e4       0x11 CMakeFiles/led_blinky_peripheral_cm33_core0.elf.dir/home/brusli/Documents/Projects/NXP/main/sdks/main_testing_sdk/devices/MCXN947/drivers/fsl_lpi2c.c.obj
 *fill*         0x000097f5        0x3 
 .rodata.s_lpuartBases
                0x000097f8       0x28 CMakeFiles/led_blinky_peripheral_cm33_core0.elf.dir/home/brusli/Documents/Projects/NXP/main/sdks/main_testing_sdk/devices/MCXN947/drivers/fsl_lpuart.c.obj
 .rodata.__func__.25
                0x00009820       0x13 CMakeFiles/led_blinky_peripheral_cm33_core0.elf.dir/home/brusli/Documents/Projects/NXP/main/sdks/main_testing_sdk/devices/MCXN947/drivers/fsl_lpuart.c.obj
 *fill*         0x00009833        0x1 
 .rodata.__func__.18
                0x00009834        0xc CMakeFiles/led_blinky_peripheral_cm33_core0.elf.dir/home/brusli/Documents/Projects/NXP/main/sdks/main_testing_sdk/devices/MCXN947/drivers/fsl_lpuart.c.obj
 .rodata.__func__.17
                0x00009840       0x18 CMakeFiles/led_blinky_peripheral_cm33_core0.elf.dir/home/brusli/Documents/Projects/NXP/main/sdks/main_testing_sdk/devices/MCXN947/drivers/fsl_lpuart.c.obj
 .rodata.__func__.13
                0x00009858       0x15 CMakeFiles/led_blinky_peripheral_cm33_core0.elf.dir/home/brusli/Documents/Projects/NXP/main/sdks/main_testing_sdk/devices/MCXN947/drivers/fsl_lpuart.c.obj
 *fill*         0x0000986d        0x3 
 .rodata.__func__.11
                0x00009870       0x14 CMakeFiles/led_blinky_peripheral_cm33_core0.elf.dir/home/brusli/Documents/Projects/NXP/main/sdks/main_testing_sdk/devices/MCXN947/drivers/fsl_lpuart.c.obj
 .rodata.__func__.9
                0x00009884       0x1a CMakeFiles/led_blinky_peripheral_cm33_core0.elf.dir/home/brusli/Documents/Projects/NXP/main/sdks/main_testing_sdk/devices/MCXN947/drivers/fsl_spc.c.obj
 *fill*         0x0000989e        0x2 
 .rodata.__func__.5
                0x000098a0       0x28 CMakeFiles/led_blinky_peripheral_cm33_core0.elf.dir/home/brusli/Documents/Projects/NXP/main/sdks/main_testing_sdk/devices/MCXN947/drivers/fsl_spc.c.obj
 .rodata.__func__.3
                0x000098c8       0x25 CMakeFiles/led_blinky_peripheral_cm33_core0.elf.dir/home/brusli/Documents/Projects/NXP/main/sdks/main_testing_sdk/devices/MCXN947/drivers/fsl_spc.c.obj
 *fill*         0x000098ed        0x3 
 .rodata.__func__.1
                0x000098f0       0x19 CMakeFiles/led_blinky_peripheral_cm33_core0.elf.dir/home/brusli/Documents/Projects/NXP/main/sdks/main_testing_sdk/devices/MCXN947/drivers/fsl_reset.c.obj
 *fill*         0x00009909        0x3 
 .rodata.__func__.0
                0x0000990c       0x1b CMakeFiles/led_blinky_peripheral_cm33_core0.elf.dir/home/brusli/Documents/Projects/NXP/main/sdks/main_testing_sdk/devices/MCXN947/drivers/fsl_reset.c.obj
 *fill*         0x00009927        0x1 
 .rodata.__func__.2
                0x00009928       0x11 CMakeFiles/led_blinky_peripheral_cm33_core0.elf.dir/home/brusli/Documents/Projects/NXP/main/sdks/main_testing_sdk/devices/MCXN947/drivers/fsl_vref.c.obj
 *fill*         0x00009939        0x3 
 .rodata.__func__.1
                0x0000993c        0xa CMakeFiles/led_blinky_peripheral_cm33_core0.elf.dir/home/brusli/Documents/Projects/NXP/main/sdks/main_testing_sdk/devices/MCXN947/drivers/fsl_vref.c.obj
 .rodata._svfprintf_r.str1.1
                0x00009946       0x33 /home/brusli/.mcuxpressotools/arm-gnu-toolchain-14.2.rel1-x86_64-arm-none-eabi/bin/../lib/gcc/arm-none-eabi/14.2.1/../../../../arm-none-eabi/lib/thumb/v8-m.main+fp/hard/libc_nano.a(libc_a-nano-svfprintf.o)
                                 0x11 (size before relaxing)
 .rodata._printf_i.str1.1
                0x00009979       0x22 /home/brusli/.mcuxpressotools/arm-gnu-toolchain-14.2.rel1-x86_64-arm-none-eabi/bin/../lib/gcc/arm-none-eabi/14.2.1/../../../../arm-none-eabi/lib/thumb/v8-m.main+fp/hard/libc_nano.a(libc_a-nano-vfprintf_i.o)
 *(.glue_7)
 .glue_7        0x00009979        0x0 linker stubs
 *(.glue_7t)
 .glue_7t       0x00009979        0x0 linker stubs
 *(.eh_frame)
 *fill*         0x00009979        0x3 
 .eh_frame      0x0000997c        0x0 /home/brusli/.mcuxpressotools/arm-gnu-toolchain-14.2.rel1-x86_64-arm-none-eabi/bin/../lib/gcc/arm-none-eabi/14.2.1/thumb/v8-m.main+fp/hard/crtbegin.o
 *(.init)
 .init          0x0000997c        0x4 /home/brusli/.mcuxpressotools/arm-gnu-toolchain-14.2.rel1-x86_64-arm-none-eabi/bin/../lib/gcc/arm-none-eabi/14.2.1/thumb/v8-m.main+fp/hard/crti.o
                0x0000997c                _init
 .init          0x00009980        0x8 /home/brusli/.mcuxpressotools/arm-gnu-toolchain-14.2.rel1-x86_64-arm-none-eabi/bin/../lib/gcc/arm-none-eabi/14.2.1/thumb/v8-m.main+fp/hard/crtn.o
 *(.fini)
 .fini          0x00009988        0x4 /home/brusli/.mcuxpressotools/arm-gnu-toolchain-14.2.rel1-x86_64-arm-none-eabi/bin/../lib/gcc/arm-none-eabi/14.2.1/thumb/v8-m.main+fp/hard/crti.o
                0x00009988                _fini
 .fini          0x0000998c        0x8 /home/brusli/.mcuxpressotools/arm-gnu-toolchain-14.2.rel1-x86_64-arm-none-eabi/bin/../lib/gcc/arm-none-eabi/14.2.1/thumb/v8-m.main+fp/hard/crtn.o
                0x00009994                        . = ALIGN (0x4)

.vfp11_veneer   0x00009994        0x0
 .vfp11_veneer  0x00009994        0x0 linker stubs

.v4_bx          0x00009994        0x0
 .v4_bx         0x00009994        0x0 linker stubs

.iplt           0x00009994        0x0
 .iplt          0x00009994        0x0 /home/brusli/.mcuxpressotools/arm-gnu-toolchain-14.2.rel1-x86_64-arm-none-eabi/bin/../lib/gcc/arm-none-eabi/14.2.1/thumb/v8-m.main+fp/hard/crtbegin.o

.ARM.extab
 *(.ARM.extab* .gnu.linkonce.armextab.*)

.ARM            0x00009994        0x8
                0x00009994                        __exidx_start = .
 *(.ARM.exidx*)
 .ARM.exidx     0x00009994        0x8 /home/brusli/.mcuxpressotools/arm-gnu-toolchain-14.2.rel1-x86_64-arm-none-eabi/bin/../lib/gcc/arm-none-eabi/14.2.1/../../../../arm-none-eabi/lib/thumb/v8-m.main+fp/hard/crt0.o
                                 0x10 (size before relaxing)
 .ARM.exidx     0x0000999c        0x0 /home/brusli/.mcuxpressotools/arm-gnu-toolchain-14.2.rel1-x86_64-arm-none-eabi/bin/../lib/gcc/arm-none-eabi/14.2.1/../../../../arm-none-eabi/lib/thumb/v8-m.main+fp/hard/libc_nano.a(libc_a-strlen.o)
                                  0x8 (size before relaxing)
 .ARM.exidx.text.__udivmoddi4
                0x0000999c        0x0 /home/brusli/.mcuxpressotools/arm-gnu-toolchain-14.2.rel1-x86_64-arm-none-eabi/bin/../lib/gcc/arm-none-eabi/14.2.1/thumb/v8-m.main+fp/hard/libgcc.a(_udivmoddi4.o)
                                  0x8 (size before relaxing)
                0x0000999c                        __exidx_end = .

.rel.dyn        0x0000999c        0x0
 .rel.iplt      0x0000999c        0x0 /home/brusli/.mcuxpressotools/arm-gnu-toolchain-14.2.rel1-x86_64-arm-none-eabi/bin/../lib/gcc/arm-none-eabi/14.2.1/thumb/v8-m.main+fp/hard/crtbegin.o

.ctors          0x0000999c        0x0
                0x0000999c                        __CTOR_LIST__ = .
 *crtbegin.o(.ctors)
 *crtbegin?.o(.ctors)
 *(EXCLUDE_FILE(*crtend.o *crtend?.o) .ctors)
 *(SORT_BY_NAME(.ctors.*))
 *(.ctors)
                0x0000999c                        __CTOR_END__ = .

.dtors          0x0000999c        0x0
                0x0000999c                        __DTOR_LIST__ = .
 *crtbegin.o(.dtors)
 *crtbegin?.o(.dtors)
 *(EXCLUDE_FILE(*crtend.o *crtend?.o) .dtors)
 *(SORT_BY_NAME(.dtors.*))
 *(.dtors)
                0x0000999c                        __DTOR_END__ = .

.preinit_array  0x0000999c        0x0
                0x0000999c                        PROVIDE (__preinit_array_start = .)
 *(.preinit_array*)
                0x0000999c                        PROVIDE (__preinit_array_end = .)

.init_array     0x0000999c        0x4
                0x0000999c                        PROVIDE (__init_array_start = .)
 *(SORT_BY_NAME(.init_array.*))
 *(.init_array*)
 .init_array    0x0000999c        0x4 /home/brusli/.mcuxpressotools/arm-gnu-toolchain-14.2.rel1-x86_64-arm-none-eabi/bin/../lib/gcc/arm-none-eabi/14.2.1/thumb/v8-m.main+fp/hard/crtbegin.o
                0x000099a0                        PROVIDE (__init_array_end = .)

.fini_array     0x000099a0        0x4
                [!provide]                        PROVIDE (__fini_array_start = .)
 *(SORT_BY_NAME(.fini_array.*))
 *(.fini_array*)
 .fini_array    0x000099a0        0x4 /home/brusli/.mcuxpressotools/arm-gnu-toolchain-14.2.rel1-x86_64-arm-none-eabi/bin/../lib/gcc/arm-none-eabi/14.2.1/thumb/v8-m.main+fp/hard/crtbegin.o
                [!provide]                        PROVIDE (__fini_array_end = .)
                0x000099a4                        __etext = .
                0x000099a4                        __DATA_ROM = .

.data           0x20000000      0x54c load address 0x000099a4
                0x20000000                        . = ALIGN (0x4)
                0x20000000                        __DATA_RAM = .
                0x20000000                        __data_start__ = .
 *(.ramfunc*)
 *(.data)
 *(.data*)
 .data.LEDs     0x20000000       0x40 CMakeFiles/led_blinky_peripheral_cm33_core0.elf.dir/home/brusli/Documents/Projects/NXP/main/MCX_LAB_6_OLED/MCX_LAB_6_OLED/led_blinky.c.obj
                0x20000000                LEDs
 .data.ADC0_commandsConfig
                0x20000040       0x78 CMakeFiles/led_blinky_peripheral_cm33_core0.elf.dir/home/brusli/Documents/Projects/NXP/main/MCX_LAB_6_OLED/MCX_LAB_6_OLED/peripherals.c.obj
                0x20000040                ADC0_commandsConfig
 .data.ADC0_triggersConfig
                0x200000b8       0x30 CMakeFiles/led_blinky_peripheral_cm33_core0.elf.dir/home/brusli/Documents/Projects/NXP/main/MCX_LAB_6_OLED/MCX_LAB_6_OLED/peripherals.c.obj
                0x200000b8                ADC0_triggersConfig
 .data.CTIMER0_callback
                0x200000e8        0x4 CMakeFiles/led_blinky_peripheral_cm33_core0.elf.dir/home/brusli/Documents/Projects/NXP/main/MCX_LAB_6_OLED/MCX_LAB_6_OLED/peripherals.c.obj
                0x200000e8                CTIMER0_callback
 .data.CTIMER1_callback
                0x200000ec        0x4 CMakeFiles/led_blinky_peripheral_cm33_core0.elf.dir/home/brusli/Documents/Projects/NXP/main/MCX_LAB_6_OLED/MCX_LAB_6_OLED/peripherals.c.obj
                0x200000ec                CTIMER1_callback
 .data.frame    0x200000f0      0x400 CMakeFiles/led_blinky_peripheral_cm33_core0.elf.dir/home/brusli/Documents/Projects/NXP/main/MCX_LAB_6_OLED/MCX_LAB_6_OLED/oled.c.obj
                0x200000f0                frame
 .data.SystemCoreClock
                0x200004f0        0x4 CMakeFiles/led_blinky_peripheral_cm33_core0.elf.dir/home/brusli/Documents/Projects/NXP/main/sdks/main_testing_sdk/devices/MCXN947/system_MCXN947_cm33_core0.c.obj
                0x200004f0                SystemCoreClock
 .data.s_Ext_Clk_Freq
                0x200004f4        0x4 CMakeFiles/led_blinky_peripheral_cm33_core0.elf.dir/home/brusli/Documents/Projects/NXP/main/sdks/main_testing_sdk/devices/MCXN947/drivers/fsl_clock.c.obj
 .data.s_Xtal32_Freq
                0x200004f8        0x4 CMakeFiles/led_blinky_peripheral_cm33_core0.elf.dir/home/brusli/Documents/Projects/NXP/main/sdks/main_testing_sdk/devices/MCXN947/drivers/fsl_clock.c.obj
 .data._impure_ptr
                0x200004fc        0x4 /home/brusli/.mcuxpressotools/arm-gnu-toolchain-14.2.rel1-x86_64-arm-none-eabi/bin/../lib/gcc/arm-none-eabi/14.2.1/../../../../arm-none-eabi/lib/thumb/v8-m.main+fp/hard/libc_nano.a(libc_a-impure.o)
                0x200004fc                _impure_ptr
 .data._impure_data
                0x20000500       0x4c /home/brusli/.mcuxpressotools/arm-gnu-toolchain-14.2.rel1-x86_64-arm-none-eabi/bin/../lib/gcc/arm-none-eabi/14.2.1/../../../../arm-none-eabi/lib/thumb/v8-m.main+fp/hard/libc_nano.a(libc_a-impure.o)
                0x20000500                _impure_data
 *(NonCacheable.init)
 *(NonCacheable)
 *(CodeQuickAccess)
 *(DataQuickAccess)
 *(.jcr*)
                0x2000054c                        . = ALIGN (0x4)
                0x2000054c                        __data_end__ = .
                0x00009ef0                        __DATA_END = (__DATA_ROM + (__data_end__ - __data_start__))
                0x000c0000                        text_end = (ORIGIN (m_text) + LENGTH (m_text))
                0x00000001                        ASSERT ((__DATA_END <= text_end), region m_text overflowed with text and data)

.tm_clone_table
                0x2000054c        0x0 load address 0x00009ef0
 .tm_clone_table
                0x2000054c        0x0 /home/brusli/.mcuxpressotools/arm-gnu-toolchain-14.2.rel1-x86_64-arm-none-eabi/bin/../lib/gcc/arm-none-eabi/14.2.1/thumb/v8-m.main+fp/hard/crtbegin.o
 .tm_clone_table
                0x2000054c        0x0 /home/brusli/.mcuxpressotools/arm-gnu-toolchain-14.2.rel1-x86_64-arm-none-eabi/bin/../lib/gcc/arm-none-eabi/14.2.1/thumb/v8-m.main+fp/hard/crtend.o

.igot.plt       0x2000054c        0x0 load address 0x00009ef0
 .igot.plt      0x2000054c        0x0 /home/brusli/.mcuxpressotools/arm-gnu-toolchain-14.2.rel1-x86_64-arm-none-eabi/bin/../lib/gcc/arm-none-eabi/14.2.1/thumb/v8-m.main+fp/hard/crtbegin.o

.bss            0x2000054c      0x2f4 load address 0x00009ef0
                0x2000054c                        . = ALIGN (0x4)
                0x2000054c                        __START_BSS = .
                0x2000054c                        __bss_start__ = .
 *(.bss)
 *(.bss*)
 .bss.completed.1
                0x2000054c        0x1 /home/brusli/.mcuxpressotools/arm-gnu-toolchain-14.2.rel1-x86_64-arm-none-eabi/bin/../lib/gcc/arm-none-eabi/14.2.1/thumb/v8-m.main+fp/hard/crtbegin.o
 *fill*         0x2000054d        0x3 
 .bss.object.0  0x20000550       0x18 /home/brusli/.mcuxpressotools/arm-gnu-toolchain-14.2.rel1-x86_64-arm-none-eabi/bin/../lib/gcc/arm-none-eabi/14.2.1/thumb/v8-m.main+fp/hard/crtbegin.o
 .bss.current_led
                0x20000568        0x1 CMakeFiles/led_blinky_peripheral_cm33_core0.elf.dir/home/brusli/Documents/Projects/NXP/main/MCX_LAB_6_OLED/MCX_LAB_6_OLED/led_blinky.c.obj
                0x20000568                current_led
 .bss.old_led   0x20000569        0x1 CMakeFiles/led_blinky_peripheral_cm33_core0.elf.dir/home/brusli/Documents/Projects/NXP/main/MCX_LAB_6_OLED/MCX_LAB_6_OLED/led_blinky.c.obj
                0x20000569                old_led
 *fill*         0x2000056a        0x2 
 .bss.timer_start
                0x2000056c        0x2 CMakeFiles/led_blinky_peripheral_cm33_core0.elf.dir/home/brusli/Documents/Projects/NXP/main/MCX_LAB_6_OLED/MCX_LAB_6_OLED/led_blinky.c.obj
                0x2000056c                timer_start
 .bss.stateAa   0x2000056e        0x1 CMakeFiles/led_blinky_peripheral_cm33_core0.elf.dir/home/brusli/Documents/Projects/NXP/main/MCX_LAB_6_OLED/MCX_LAB_6_OLED/led_blinky.c.obj
                0x2000056e                stateAa
 *fill*         0x2000056f        0x1 
 .bss.displayStart
                0x20000570        0x2 CMakeFiles/led_blinky_peripheral_cm33_core0.elf.dir/home/brusli/Documents/Projects/NXP/main/MCX_LAB_6_OLED/MCX_LAB_6_OLED/led_blinky.c.obj
                0x20000570                displayStart
 .bss.direction
                0x20000572        0x1 CMakeFiles/led_blinky_peripheral_cm33_core0.elf.dir/home/brusli/Documents/Projects/NXP/main/MCX_LAB_6_OLED/MCX_LAB_6_OLED/led_blinky.c.obj
                0x20000572                direction
 .bss.ok        0x20000573        0x1 CMakeFiles/led_blinky_peripheral_cm33_core0.elf.dir/home/brusli/Documents/Projects/NXP/main/MCX_LAB_6_OLED/MCX_LAB_6_OLED/led_blinky.c.obj
                0x20000573                ok
 .bss.toggle    0x20000574        0x4 CMakeFiles/led_blinky_peripheral_cm33_core0.elf.dir/home/brusli/Documents/Projects/NXP/main/MCX_LAB_6_OLED/MCX_LAB_6_OLED/led_blinky.c.obj
                0x20000574                toggle
 .bss.stateB    0x20000578        0x1 CMakeFiles/led_blinky_peripheral_cm33_core0.elf.dir/home/brusli/Documents/Projects/NXP/main/MCX_LAB_6_OLED/MCX_LAB_6_OLED/led_blinky.c.obj
                0x20000578                stateB
 .bss.stateAb   0x20000579        0x1 CMakeFiles/led_blinky_peripheral_cm33_core0.elf.dir/home/brusli/Documents/Projects/NXP/main/MCX_LAB_6_OLED/MCX_LAB_6_OLED/led_blinky.c.obj
                0x20000579                stateAb
 *fill*         0x2000057a        0x2 
 .bss.currCharLoc
                0x2000057c        0x2 CMakeFiles/led_blinky_peripheral_cm33_core0.elf.dir/home/brusli/Documents/Projects/NXP/main/MCX_LAB_6_OLED/MCX_LAB_6_OLED/oled.c.obj
                0x2000057c                currCharLoc
 *fill*         0x2000057e        0x2 
 .bss.s_ctimerCallback
                0x20000580       0x14 CMakeFiles/led_blinky_peripheral_cm33_core0.elf.dir/home/brusli/Documents/Projects/NXP/main/sdks/main_testing_sdk/devices/MCXN947/drivers/fsl_ctimer.c.obj
 .bss.ctimerCallbackType
                0x20000594        0x5 CMakeFiles/led_blinky_peripheral_cm33_core0.elf.dir/home/brusli/Documents/Projects/NXP/main/sdks/main_testing_sdk/devices/MCXN947/drivers/fsl_ctimer.c.obj
 *fill*         0x20000599        0x3 
 .bss.s_lpflexcommIrqHandler
                0x2000059c       0xa0 CMakeFiles/led_blinky_peripheral_cm33_core0.elf.dir/home/brusli/Documents/Projects/NXP/main/sdks/main_testing_sdk/devices/MCXN947/drivers/fsl_lpflexcomm.c.obj
 .bss.s_lpflexcommHandle
                0x2000063c       0xa0 CMakeFiles/led_blinky_peripheral_cm33_core0.elf.dir/home/brusli/Documents/Projects/NXP/main/sdks/main_testing_sdk/devices/MCXN947/drivers/fsl_lpflexcomm.c.obj
 .bss.heap_end.0
                0x200006dc        0x4 CMakeFiles/led_blinky_peripheral_cm33_core0.elf.dir/home/brusli/Documents/Projects/NXP/main/sdks/main_testing_sdk/devices/MCXN947/utilities/fsl_sbrk.c.obj
 .bss.s_debugConsole
                0x200006e0       0x14 CMakeFiles/led_blinky_peripheral_cm33_core0.elf.dir/home/brusli/Documents/Projects/NXP/main/sdks/main_testing_sdk/devices/MCXN947/utilities/debug_console_lite/fsl_debug_console.c.obj
 .bss.__malloc_sbrk_start
                0x200006f4        0x4 /home/brusli/.mcuxpressotools/arm-gnu-toolchain-14.2.rel1-x86_64-arm-none-eabi/bin/../lib/gcc/arm-none-eabi/14.2.1/../../../../arm-none-eabi/lib/thumb/v8-m.main+fp/hard/libc_nano.a(libc_a-mallocr.o)
                0x200006f4                __malloc_sbrk_start
 .bss.__malloc_free_list
                0x200006f8        0x4 /home/brusli/.mcuxpressotools/arm-gnu-toolchain-14.2.rel1-x86_64-arm-none-eabi/bin/../lib/gcc/arm-none-eabi/14.2.1/../../../../arm-none-eabi/lib/thumb/v8-m.main+fp/hard/libc_nano.a(libc_a-mallocr.o)
                0x200006f8                __malloc_free_list
 .bss.__sf      0x200006fc      0x138 /home/brusli/.mcuxpressotools/arm-gnu-toolchain-14.2.rel1-x86_64-arm-none-eabi/bin/../lib/gcc/arm-none-eabi/14.2.1/../../../../arm-none-eabi/lib/thumb/v8-m.main+fp/hard/libc_nano.a(libc_a-findfp.o)
                0x200006fc                __sf
 .bss.__stdio_exit_handler
                0x20000834        0x4 /home/brusli/.mcuxpressotools/arm-gnu-toolchain-14.2.rel1-x86_64-arm-none-eabi/bin/../lib/gcc/arm-none-eabi/14.2.1/../../../../arm-none-eabi/lib/thumb/v8-m.main+fp/hard/libc_nano.a(libc_a-findfp.o)
                0x20000834                __stdio_exit_handler
 .bss.errno     0x20000838        0x4 /home/brusli/.mcuxpressotools/arm-gnu-toolchain-14.2.rel1-x86_64-arm-none-eabi/bin/../lib/gcc/arm-none-eabi/14.2.1/../../../../arm-none-eabi/lib/thumb/v8-m.main+fp/hard/libc_nano.a(libc_a-reent.o)
                0x20000838                errno
 .bss.__lock___malloc_recursive_mutex
                0x2000083c        0x1 /home/brusli/.mcuxpressotools/arm-gnu-toolchain-14.2.rel1-x86_64-arm-none-eabi/bin/../lib/gcc/arm-none-eabi/14.2.1/../../../../arm-none-eabi/lib/thumb/v8-m.main+fp/hard/libc_nano.a(libc_a-lock.o)
                0x2000083c                __lock___malloc_recursive_mutex
 *(COMMON)
                0x20000840                        . = ALIGN (0x4)
 *fill*         0x2000083d        0x3 
                0x20000840                        __bss_end__ = .
                0x20000840                        __END_BSS = .

.heap           0x20000840      0x400 load address 0x0000a1e4
                0x20000840                        . = ALIGN (0x8)
                0x20000840                        __end__ = .
                0x20000840                        PROVIDE (end = .)
                0x20000840                        __HeapBase = .
                0x20000c40                        . = (. + HEAP_SIZE)
 *fill*         0x20000840      0x400 
                0x20000c40                        __HeapLimit = .
                0x20000c40                        __heap_limit = .

.stack          0x20000c40      0x800 load address 0x0000a5e4
                0x20000c40                        . = ALIGN (0x8)
                0x20001440                        . = (. + STACK_SIZE)
 *fill*         0x20000c40      0x800 

m_usb_bdt       0x400ba000        0x0
                0x400ba000                        . = ALIGN (0x200)
 *(m_usb_bdt)

m_usb_global
 *(m_usb_global)
                0x2004e000                        __StackTop = (ORIGIN (m_data) + LENGTH (m_data))
                0x2004d800                        __StackLimit = (__StackTop - STACK_SIZE)
                0x2004e000                        PROVIDE (__stack = __StackTop)

.ARM.attributes
                0x00000000       0x36
 *(.ARM.attributes)
 .ARM.attributes
                0x00000000       0x26 /home/brusli/.mcuxpressotools/arm-gnu-toolchain-14.2.rel1-x86_64-arm-none-eabi/bin/../lib/gcc/arm-none-eabi/14.2.1/thumb/v8-m.main+fp/hard/crti.o
 .ARM.attributes
                0x00000026       0x38 /home/brusli/.mcuxpressotools/arm-gnu-toolchain-14.2.rel1-x86_64-arm-none-eabi/bin/../lib/gcc/arm-none-eabi/14.2.1/thumb/v8-m.main+fp/hard/crtbegin.o
 .ARM.attributes
                0x0000005e       0x24 /home/brusli/.mcuxpressotools/arm-gnu-toolchain-14.2.rel1-x86_64-arm-none-eabi/bin/../lib/gcc/arm-none-eabi/14.2.1/../../../../arm-none-eabi/lib/thumb/v8-m.main+fp/hard/crt0.o
 .ARM.attributes
                0x00000082       0x3a CMakeFiles/led_blinky_peripheral_cm33_core0.elf.dir/home/brusli/Documents/Projects/NXP/main/MCX_LAB_6_OLED/MCX_LAB_6_OLED/led_blinky.c.obj
 .ARM.attributes
                0x000000bc       0x3a CMakeFiles/led_blinky_peripheral_cm33_core0.elf.dir/home/brusli/Documents/Projects/NXP/main/MCX_LAB_6_OLED/MCX_LAB_6_OLED/peripherals.c.obj
 .ARM.attributes
                0x000000f6       0x3a CMakeFiles/led_blinky_peripheral_cm33_core0.elf.dir/home/brusli/Documents/Projects/NXP/main/MCX_LAB_6_OLED/MCX_LAB_6_OLED/board.c.obj
 .ARM.attributes
                0x00000130       0x3a CMakeFiles/led_blinky_peripheral_cm33_core0.elf.dir/home/brusli/Documents/Projects/NXP/main/MCX_LAB_6_OLED/MCX_LAB_6_OLED/clock_config.c.obj
 .ARM.attributes
                0x0000016a       0x3a CMakeFiles/led_blinky_peripheral_cm33_core0.elf.dir/home/brusli/Documents/Projects/NXP/main/MCX_LAB_6_OLED/MCX_LAB_6_OLED/pin_mux.c.obj
 .ARM.attributes
                0x000001a4       0x3a CMakeFiles/led_blinky_peripheral_cm33_core0.elf.dir/home/brusli/Documents/Projects/NXP/main/MCX_LAB_6_OLED/MCX_LAB_6_OLED/oled.c.obj
 .ARM.attributes
                0x000001de       0x3a CMakeFiles/led_blinky_peripheral_cm33_core0.elf.dir/home/brusli/Documents/Projects/NXP/main/sdks/main_testing_sdk/components/uart/fsl_adapter_lpuart.c.obj
 .ARM.attributes
                0x00000218       0x24 CMakeFiles/led_blinky_peripheral_cm33_core0.elf.dir/home/brusli/Documents/Projects/NXP/main/sdks/main_testing_sdk/devices/MCXN947/gcc/startup_MCXN947_cm33_core0.S.obj
 .ARM.attributes
                0x0000023c       0x3a CMakeFiles/led_blinky_peripheral_cm33_core0.elf.dir/home/brusli/Documents/Projects/NXP/main/sdks/main_testing_sdk/devices/MCXN947/system_MCXN947_cm33_core0.c.obj
 .ARM.attributes
                0x00000276       0x3a CMakeFiles/led_blinky_peripheral_cm33_core0.elf.dir/home/brusli/Documents/Projects/NXP/main/sdks/main_testing_sdk/devices/MCXN947/drivers/fsl_clock.c.obj
 .ARM.attributes
                0x000002b0       0x3a CMakeFiles/led_blinky_peripheral_cm33_core0.elf.dir/home/brusli/Documents/Projects/NXP/main/sdks/main_testing_sdk/devices/MCXN947/drivers/fsl_common_arm.c.obj
 .ARM.attributes
                0x000002ea       0x3a CMakeFiles/led_blinky_peripheral_cm33_core0.elf.dir/home/brusli/Documents/Projects/NXP/main/sdks/main_testing_sdk/devices/MCXN947/drivers/fsl_ctimer.c.obj
 .ARM.attributes
                0x00000324       0x3a CMakeFiles/led_blinky_peripheral_cm33_core0.elf.dir/home/brusli/Documents/Projects/NXP/main/sdks/main_testing_sdk/devices/MCXN947/drivers/fsl_gpio.c.obj
 .ARM.attributes
                0x0000035e       0x3a CMakeFiles/led_blinky_peripheral_cm33_core0.elf.dir/home/brusli/Documents/Projects/NXP/main/sdks/main_testing_sdk/devices/MCXN947/drivers/fsl_lpadc.c.obj
 .ARM.attributes
                0x00000398       0x3a CMakeFiles/led_blinky_peripheral_cm33_core0.elf.dir/home/brusli/Documents/Projects/NXP/main/sdks/main_testing_sdk/devices/MCXN947/drivers/fsl_lpflexcomm.c.obj
 .ARM.attributes
                0x000003d2       0x3a CMakeFiles/led_blinky_peripheral_cm33_core0.elf.dir/home/brusli/Documents/Projects/NXP/main/sdks/main_testing_sdk/devices/MCXN947/drivers/fsl_lpi2c.c.obj
 .ARM.attributes
                0x0000040c       0x3a CMakeFiles/led_blinky_peripheral_cm33_core0.elf.dir/home/brusli/Documents/Projects/NXP/main/sdks/main_testing_sdk/devices/MCXN947/drivers/fsl_lpuart.c.obj
 .ARM.attributes
                0x00000446       0x3a CMakeFiles/led_blinky_peripheral_cm33_core0.elf.dir/home/brusli/Documents/Projects/NXP/main/sdks/main_testing_sdk/devices/MCXN947/drivers/fsl_spc.c.obj
 .ARM.attributes
                0x00000480       0x3a CMakeFiles/led_blinky_peripheral_cm33_core0.elf.dir/home/brusli/Documents/Projects/NXP/main/sdks/main_testing_sdk/devices/MCXN947/drivers/fsl_reset.c.obj
 .ARM.attributes
                0x000004ba       0x3a CMakeFiles/led_blinky_peripheral_cm33_core0.elf.dir/home/brusli/Documents/Projects/NXP/main/sdks/main_testing_sdk/devices/MCXN947/drivers/fsl_vref.c.obj
 .ARM.attributes
                0x000004f4       0x3a CMakeFiles/led_blinky_peripheral_cm33_core0.elf.dir/home/brusli/Documents/Projects/NXP/main/sdks/main_testing_sdk/devices/MCXN947/utilities/fsl_sbrk.c.obj
 .ARM.attributes
                0x0000052e       0x26 CMakeFiles/led_blinky_peripheral_cm33_core0.elf.dir/home/brusli/Documents/Projects/NXP/main/sdks/main_testing_sdk/devices/MCXN947/utilities/fsl_memcpy.S.obj
 .ARM.attributes
                0x00000554       0x3a CMakeFiles/led_blinky_peripheral_cm33_core0.elf.dir/home/brusli/Documents/Projects/NXP/main/sdks/main_testing_sdk/devices/MCXN947/utilities/debug_console_lite/fsl_assert.c.obj
 .ARM.attributes
                0x0000058e       0x3a CMakeFiles/led_blinky_peripheral_cm33_core0.elf.dir/home/brusli/Documents/Projects/NXP/main/sdks/main_testing_sdk/devices/MCXN947/utilities/debug_console_lite/fsl_debug_console.c.obj
 .ARM.attributes
                0x000005c8       0x26 /home/brusli/.mcuxpressotools/arm-gnu-toolchain-14.2.rel1-x86_64-arm-none-eabi/bin/../lib/gcc/arm-none-eabi/14.2.1/thumb/v8-m.main+fp/hard/libgcc.a(_arm_addsubdf3.o)
 .ARM.attributes
                0x000005ee       0x26 /home/brusli/.mcuxpressotools/arm-gnu-toolchain-14.2.rel1-x86_64-arm-none-eabi/bin/../lib/gcc/arm-none-eabi/14.2.1/thumb/v8-m.main+fp/hard/libgcc.a(_arm_muldivdf3.o)
 .ARM.attributes
                0x00000614       0x26 /home/brusli/.mcuxpressotools/arm-gnu-toolchain-14.2.rel1-x86_64-arm-none-eabi/bin/../lib/gcc/arm-none-eabi/14.2.1/thumb/v8-m.main+fp/hard/libgcc.a(_aeabi_uldivmod.o)
 .ARM.attributes
                0x0000063a       0x38 /home/brusli/.mcuxpressotools/arm-gnu-toolchain-14.2.rel1-x86_64-arm-none-eabi/bin/../lib/gcc/arm-none-eabi/14.2.1/thumb/v8-m.main+fp/hard/libgcc.a(_fixunssfdi.o)
 .ARM.attributes
                0x00000672       0x38 /home/brusli/.mcuxpressotools/arm-gnu-toolchain-14.2.rel1-x86_64-arm-none-eabi/bin/../lib/gcc/arm-none-eabi/14.2.1/thumb/v8-m.main+fp/hard/libgcc.a(_udivmoddi4.o)
 .ARM.attributes
                0x000006aa       0x26 /home/brusli/.mcuxpressotools/arm-gnu-toolchain-14.2.rel1-x86_64-arm-none-eabi/bin/../lib/gcc/arm-none-eabi/14.2.1/thumb/v8-m.main+fp/hard/libgcc.a(_dvmd_tls.o)
 .ARM.attributes
                0x000006d0       0x26 /home/brusli/.mcuxpressotools/arm-gnu-toolchain-14.2.rel1-x86_64-arm-none-eabi/bin/../lib/gcc/arm-none-eabi/14.2.1/thumb/v8-m.main+fp/hard/libgcc.a(_arm_fixunsdfsi.o)
 .ARM.attributes
                0x000006f6       0x38 /home/brusli/.mcuxpressotools/arm-gnu-toolchain-14.2.rel1-x86_64-arm-none-eabi/bin/../lib/gcc/arm-none-eabi/14.2.1/../../../../arm-none-eabi/lib/thumb/v8-m.main+fp/hard/libc_nano.a(libc_a-exit.o)
 .ARM.attributes
                0x0000072e       0x38 /home/brusli/.mcuxpressotools/arm-gnu-toolchain-14.2.rel1-x86_64-arm-none-eabi/bin/../lib/gcc/arm-none-eabi/14.2.1/../../../../arm-none-eabi/lib/thumb/v8-m.main+fp/hard/libc_nano.a(libc_a-mallocr.o)
 .ARM.attributes
                0x00000766       0x38 /home/brusli/.mcuxpressotools/arm-gnu-toolchain-14.2.rel1-x86_64-arm-none-eabi/bin/../lib/gcc/arm-none-eabi/14.2.1/../../../../arm-none-eabi/lib/thumb/v8-m.main+fp/hard/libc_nano.a(libc_a-mlock.o)
 .ARM.attributes
                0x0000079e       0x38 /home/brusli/.mcuxpressotools/arm-gnu-toolchain-14.2.rel1-x86_64-arm-none-eabi/bin/../lib/gcc/arm-none-eabi/14.2.1/../../../../arm-none-eabi/lib/thumb/v8-m.main+fp/hard/libc_nano.a(libc_a-findfp.o)
 .ARM.attributes
                0x000007d6       0x38 /home/brusli/.mcuxpressotools/arm-gnu-toolchain-14.2.rel1-x86_64-arm-none-eabi/bin/../lib/gcc/arm-none-eabi/14.2.1/../../../../arm-none-eabi/lib/thumb/v8-m.main+fp/hard/libc_nano.a(libc_a-vsnprintf.o)
 .ARM.attributes
                0x0000080e       0x38 /home/brusli/.mcuxpressotools/arm-gnu-toolchain-14.2.rel1-x86_64-arm-none-eabi/bin/../lib/gcc/arm-none-eabi/14.2.1/../../../../arm-none-eabi/lib/thumb/v8-m.main+fp/hard/libc_nano.a(libc_a-vsprintf.o)
 .ARM.attributes
                0x00000846       0x38 /home/brusli/.mcuxpressotools/arm-gnu-toolchain-14.2.rel1-x86_64-arm-none-eabi/bin/../lib/gcc/arm-none-eabi/14.2.1/../../../../arm-none-eabi/lib/thumb/v8-m.main+fp/hard/libc_nano.a(libc_a-memset.o)
 .ARM.attributes
                0x0000087e       0x38 /home/brusli/.mcuxpressotools/arm-gnu-toolchain-14.2.rel1-x86_64-arm-none-eabi/bin/../lib/gcc/arm-none-eabi/14.2.1/../../../../arm-none-eabi/lib/thumb/v8-m.main+fp/hard/libc_nano.a(libc_a-reent.o)
 .ARM.attributes
                0x000008b6       0x38 /home/brusli/.mcuxpressotools/arm-gnu-toolchain-14.2.rel1-x86_64-arm-none-eabi/bin/../lib/gcc/arm-none-eabi/14.2.1/../../../../arm-none-eabi/lib/thumb/v8-m.main+fp/hard/libc_nano.a(libc_a-impure.o)
 .ARM.attributes
                0x000008ee       0x38 /home/brusli/.mcuxpressotools/arm-gnu-toolchain-14.2.rel1-x86_64-arm-none-eabi/bin/../lib/gcc/arm-none-eabi/14.2.1/../../../../arm-none-eabi/lib/thumb/v8-m.main+fp/hard/libc_nano.a(libc_a-sbrkr.o)
 .ARM.attributes
                0x00000926       0x38 /home/brusli/.mcuxpressotools/arm-gnu-toolchain-14.2.rel1-x86_64-arm-none-eabi/bin/../lib/gcc/arm-none-eabi/14.2.1/../../../../arm-none-eabi/lib/thumb/v8-m.main+fp/hard/libc_nano.a(libc_a-errno.o)
 .ARM.attributes
                0x0000095e       0x38 /home/brusli/.mcuxpressotools/arm-gnu-toolchain-14.2.rel1-x86_64-arm-none-eabi/bin/../lib/gcc/arm-none-eabi/14.2.1/../../../../arm-none-eabi/lib/thumb/v8-m.main+fp/hard/libc_nano.a(libc_a-init.o)
 .ARM.attributes
                0x00000996       0x38 /home/brusli/.mcuxpressotools/arm-gnu-toolchain-14.2.rel1-x86_64-arm-none-eabi/bin/../lib/gcc/arm-none-eabi/14.2.1/../../../../arm-none-eabi/lib/thumb/v8-m.main+fp/hard/libc_nano.a(libc_a-lock.o)
 .ARM.attributes
                0x000009ce       0x24 /home/brusli/.mcuxpressotools/arm-gnu-toolchain-14.2.rel1-x86_64-arm-none-eabi/bin/../lib/gcc/arm-none-eabi/14.2.1/../../../../arm-none-eabi/lib/thumb/v8-m.main+fp/hard/libc_nano.a(libc_a-strlen.o)
 .ARM.attributes
                0x000009f2       0x38 /home/brusli/.mcuxpressotools/arm-gnu-toolchain-14.2.rel1-x86_64-arm-none-eabi/bin/../lib/gcc/arm-none-eabi/14.2.1/../../../../arm-none-eabi/lib/thumb/v8-m.main+fp/hard/libc_nano.a(libc_a-freer.o)
 .ARM.attributes
                0x00000a2a       0x38 /home/brusli/.mcuxpressotools/arm-gnu-toolchain-14.2.rel1-x86_64-arm-none-eabi/bin/../lib/gcc/arm-none-eabi/14.2.1/../../../../arm-none-eabi/lib/thumb/v8-m.main+fp/hard/libc_nano.a(libc_a-nano-svfprintf.o)
 .ARM.attributes
                0x00000a62       0x38 /home/brusli/.mcuxpressotools/arm-gnu-toolchain-14.2.rel1-x86_64-arm-none-eabi/bin/../lib/gcc/arm-none-eabi/14.2.1/../../../../arm-none-eabi/lib/thumb/v8-m.main+fp/hard/libc_nano.a(libc_a-nano-vfprintf_i.o)
 .ARM.attributes
                0x00000a9a       0x38 /home/brusli/.mcuxpressotools/arm-gnu-toolchain-14.2.rel1-x86_64-arm-none-eabi/bin/../lib/gcc/arm-none-eabi/14.2.1/../../../../arm-none-eabi/lib/thumb/v8-m.main+fp/hard/libc_nano.a(libc_a-memmove.o)
 .ARM.attributes
                0x00000ad2       0x38 /home/brusli/.mcuxpressotools/arm-gnu-toolchain-14.2.rel1-x86_64-arm-none-eabi/bin/../lib/gcc/arm-none-eabi/14.2.1/../../../../arm-none-eabi/lib/thumb/v8-m.main+fp/hard/libc_nano.a(libc_a-memchr-stub.o)
 .ARM.attributes
                0x00000b0a       0x38 /home/brusli/.mcuxpressotools/arm-gnu-toolchain-14.2.rel1-x86_64-arm-none-eabi/bin/../lib/gcc/arm-none-eabi/14.2.1/../../../../arm-none-eabi/lib/thumb/v8-m.main+fp/hard/libc_nano.a(libc_a-reallocr.o)
 .ARM.attributes
                0x00000b42       0x38 /home/brusli/.mcuxpressotools/arm-gnu-toolchain-14.2.rel1-x86_64-arm-none-eabi/bin/../lib/gcc/arm-none-eabi/14.2.1/../../../../arm-none-eabi/lib/thumb/v8-m.main+fp/hard/libc_nano.a(libc_a-msizer.o)
 .ARM.attributes
                0x00000b7a       0x38 /home/brusli/.mcuxpressotools/arm-gnu-toolchain-14.2.rel1-x86_64-arm-none-eabi/bin/../lib/gcc/arm-none-eabi/14.2.1/../../../../arm-none-eabi/lib/thumb/v8-m.main+fp/hard/libcr_newlib_nohost.a(_exit.o)
 .ARM.attributes
                0x00000bb2       0x38 /home/brusli/.mcuxpressotools/arm-gnu-toolchain-14.2.rel1-x86_64-arm-none-eabi/bin/../lib/gcc/arm-none-eabi/14.2.1/thumb/v8-m.main+fp/hard/crtend.o
 .ARM.attributes
                0x00000bea       0x26 /home/brusli/.mcuxpressotools/arm-gnu-toolchain-14.2.rel1-x86_64-arm-none-eabi/bin/../lib/gcc/arm-none-eabi/14.2.1/thumb/v8-m.main+fp/hard/crtn.o
                0x00000001                        ASSERT ((__StackLimit >= __HeapLimit), region m_data overflowed with stack and heap)
OUTPUT(led_blinky_peripheral_cm33_core0.elf elf32-littlearm)
LOAD linker stubs

.debug_line_str
                0x00000000      0x3c4
 .debug_line_str
                0x00000000      0x3c4 /home/brusli/.mcuxpressotools/arm-gnu-toolchain-14.2.rel1-x86_64-arm-none-eabi/bin/../lib/gcc/arm-none-eabi/14.2.1/../../../../arm-none-eabi/lib/thumb/v8-m.main+fp/hard/crt0.o
                                 0xd3 (size before relaxing)
 .debug_line_str
                0x000003c4       0xc4 CMakeFiles/led_blinky_peripheral_cm33_core0.elf.dir/home/brusli/Documents/Projects/NXP/main/sdks/main_testing_sdk/devices/MCXN947/gcc/startup_MCXN947_cm33_core0.S.obj
 .debug_line_str
                0x000003c4       0xba CMakeFiles/led_blinky_peripheral_cm33_core0.elf.dir/home/brusli/Documents/Projects/NXP/main/sdks/main_testing_sdk/devices/MCXN947/utilities/fsl_memcpy.S.obj
 .debug_line_str
                0x000003c4       0xcb /home/brusli/.mcuxpressotools/arm-gnu-toolchain-14.2.rel1-x86_64-arm-none-eabi/bin/../lib/gcc/arm-none-eabi/14.2.1/thumb/v8-m.main+fp/hard/libgcc.a(_arm_addsubdf3.o)
 .debug_line_str
                0x000003c4       0xcb /home/brusli/.mcuxpressotools/arm-gnu-toolchain-14.2.rel1-x86_64-arm-none-eabi/bin/../lib/gcc/arm-none-eabi/14.2.1/thumb/v8-m.main+fp/hard/libgcc.a(_arm_muldivdf3.o)
 .debug_line_str
                0x000003c4       0xc6 /home/brusli/.mcuxpressotools/arm-gnu-toolchain-14.2.rel1-x86_64-arm-none-eabi/bin/../lib/gcc/arm-none-eabi/14.2.1/thumb/v8-m.main+fp/hard/libgcc.a(_aeabi_uldivmod.o)
 .debug_line_str
                0x000003c4       0xca /home/brusli/.mcuxpressotools/arm-gnu-toolchain-14.2.rel1-x86_64-arm-none-eabi/bin/../lib/gcc/arm-none-eabi/14.2.1/thumb/v8-m.main+fp/hard/libgcc.a(_dvmd_tls.o)
 .debug_line_str
                0x000003c4       0xcb /home/brusli/.mcuxpressotools/arm-gnu-toolchain-14.2.rel1-x86_64-arm-none-eabi/bin/../lib/gcc/arm-none-eabi/14.2.1/thumb/v8-m.main+fp/hard/libgcc.a(_arm_fixunsdfsi.o)
 .debug_line_str
                0x000003c4       0xe8 /home/brusli/.mcuxpressotools/arm-gnu-toolchain-14.2.rel1-x86_64-arm-none-eabi/bin/../lib/gcc/arm-none-eabi/14.2.1/../../../../arm-none-eabi/lib/thumb/v8-m.main+fp/hard/libc_nano.a(libc_a-strlen.o)

.debug_info     0x00000000    0x27e0e
 .debug_info    0x00000000     0x1c80 CMakeFiles/led_blinky_peripheral_cm33_core0.elf.dir/home/brusli/Documents/Projects/NXP/main/MCX_LAB_6_OLED/MCX_LAB_6_OLED/led_blinky.c.obj
 .debug_info    0x00001c80     0x1a68 CMakeFiles/led_blinky_peripheral_cm33_core0.elf.dir/home/brusli/Documents/Projects/NXP/main/MCX_LAB_6_OLED/MCX_LAB_6_OLED/peripherals.c.obj
 .debug_info    0x000036e8     0x12c2 CMakeFiles/led_blinky_peripheral_cm33_core0.elf.dir/home/brusli/Documents/Projects/NXP/main/MCX_LAB_6_OLED/MCX_LAB_6_OLED/board.c.obj
 .debug_info    0x000049aa     0x2b23 CMakeFiles/led_blinky_peripheral_cm33_core0.elf.dir/home/brusli/Documents/Projects/NXP/main/MCX_LAB_6_OLED/MCX_LAB_6_OLED/clock_config.c.obj
 .debug_info    0x000074cd     0x1d2b CMakeFiles/led_blinky_peripheral_cm33_core0.elf.dir/home/brusli/Documents/Projects/NXP/main/MCX_LAB_6_OLED/MCX_LAB_6_OLED/pin_mux.c.obj
 .debug_info    0x000091f8      0xf3a CMakeFiles/led_blinky_peripheral_cm33_core0.elf.dir/home/brusli/Documents/Projects/NXP/main/MCX_LAB_6_OLED/MCX_LAB_6_OLED/oled.c.obj
 .debug_info    0x0000a132      0xefa CMakeFiles/led_blinky_peripheral_cm33_core0.elf.dir/home/brusli/Documents/Projects/NXP/main/sdks/main_testing_sdk/components/uart/fsl_adapter_lpuart.c.obj
 .debug_info    0x0000b02c      0xf58 CMakeFiles/led_blinky_peripheral_cm33_core0.elf.dir/home/brusli/Documents/Projects/NXP/main/sdks/main_testing_sdk/devices/MCXN947/gcc/startup_MCXN947_cm33_core0.S.obj
 .debug_info    0x0000bf84     0x1963 CMakeFiles/led_blinky_peripheral_cm33_core0.elf.dir/home/brusli/Documents/Projects/NXP/main/sdks/main_testing_sdk/devices/MCXN947/system_MCXN947_cm33_core0.c.obj
 .debug_info    0x0000d8e7     0x507d CMakeFiles/led_blinky_peripheral_cm33_core0.elf.dir/home/brusli/Documents/Projects/NXP/main/sdks/main_testing_sdk/devices/MCXN947/drivers/fsl_clock.c.obj
 .debug_info    0x00012964      0x3b2 CMakeFiles/led_blinky_peripheral_cm33_core0.elf.dir/home/brusli/Documents/Projects/NXP/main/sdks/main_testing_sdk/devices/MCXN947/drivers/fsl_common_arm.c.obj
 .debug_info    0x00012d16     0x2acc CMakeFiles/led_blinky_peripheral_cm33_core0.elf.dir/home/brusli/Documents/Projects/NXP/main/sdks/main_testing_sdk/devices/MCXN947/drivers/fsl_ctimer.c.obj
 .debug_info    0x000157e2     0x1c59 CMakeFiles/led_blinky_peripheral_cm33_core0.elf.dir/home/brusli/Documents/Projects/NXP/main/sdks/main_testing_sdk/devices/MCXN947/drivers/fsl_gpio.c.obj
 .debug_info    0x0001743b     0x294c CMakeFiles/led_blinky_peripheral_cm33_core0.elf.dir/home/brusli/Documents/Projects/NXP/main/sdks/main_testing_sdk/devices/MCXN947/drivers/fsl_lpadc.c.obj
 .debug_info    0x00019d87     0x2375 CMakeFiles/led_blinky_peripheral_cm33_core0.elf.dir/home/brusli/Documents/Projects/NXP/main/sdks/main_testing_sdk/devices/MCXN947/drivers/fsl_lpflexcomm.c.obj
 .debug_info    0x0001c0fc     0x3f0e CMakeFiles/led_blinky_peripheral_cm33_core0.elf.dir/home/brusli/Documents/Projects/NXP/main/sdks/main_testing_sdk/devices/MCXN947/drivers/fsl_lpi2c.c.obj
 .debug_info    0x0002000a     0x265f CMakeFiles/led_blinky_peripheral_cm33_core0.elf.dir/home/brusli/Documents/Projects/NXP/main/sdks/main_testing_sdk/devices/MCXN947/drivers/fsl_lpuart.c.obj
 .debug_info    0x00022669     0x1ad8 CMakeFiles/led_blinky_peripheral_cm33_core0.elf.dir/home/brusli/Documents/Projects/NXP/main/sdks/main_testing_sdk/devices/MCXN947/drivers/fsl_spc.c.obj
 .debug_info    0x00024141     0x126f CMakeFiles/led_blinky_peripheral_cm33_core0.elf.dir/home/brusli/Documents/Projects/NXP/main/sdks/main_testing_sdk/devices/MCXN947/drivers/fsl_reset.c.obj
 .debug_info    0x000253b0     0x19bf CMakeFiles/led_blinky_peripheral_cm33_core0.elf.dir/home/brusli/Documents/Projects/NXP/main/sdks/main_testing_sdk/devices/MCXN947/drivers/fsl_vref.c.obj
 .debug_info    0x00026d6f      0x124 CMakeFiles/led_blinky_peripheral_cm33_core0.elf.dir/home/brusli/Documents/Projects/NXP/main/sdks/main_testing_sdk/devices/MCXN947/utilities/fsl_sbrk.c.obj
 .debug_info    0x00026e93       0x25 CMakeFiles/led_blinky_peripheral_cm33_core0.elf.dir/home/brusli/Documents/Projects/NXP/main/sdks/main_testing_sdk/devices/MCXN947/utilities/fsl_memcpy.S.obj
 .debug_info    0x00026eb8      0x1c6 CMakeFiles/led_blinky_peripheral_cm33_core0.elf.dir/home/brusli/Documents/Projects/NXP/main/sdks/main_testing_sdk/devices/MCXN947/utilities/debug_console_lite/fsl_assert.c.obj
 .debug_info    0x0002707e      0xced CMakeFiles/led_blinky_peripheral_cm33_core0.elf.dir/home/brusli/Documents/Projects/NXP/main/sdks/main_testing_sdk/devices/MCXN947/utilities/debug_console_lite/fsl_debug_console.c.obj
 .debug_info    0x00027d6b       0xa3 /home/brusli/.mcuxpressotools/arm-gnu-toolchain-14.2.rel1-x86_64-arm-none-eabi/bin/../lib/gcc/arm-none-eabi/14.2.1/../../../../arm-none-eabi/lib/thumb/v8-m.main+fp/hard/libcr_newlib_nohost.a(_exit.o)

.debug_abbrev   0x00000000     0x3b1d
 .debug_abbrev  0x00000000      0x357 CMakeFiles/led_blinky_peripheral_cm33_core0.elf.dir/home/brusli/Documents/Projects/NXP/main/MCX_LAB_6_OLED/MCX_LAB_6_OLED/led_blinky.c.obj
 .debug_abbrev  0x00000357      0x2f3 CMakeFiles/led_blinky_peripheral_cm33_core0.elf.dir/home/brusli/Documents/Projects/NXP/main/MCX_LAB_6_OLED/MCX_LAB_6_OLED/peripherals.c.obj
 .debug_abbrev  0x0000064a      0x1f2 CMakeFiles/led_blinky_peripheral_cm33_core0.elf.dir/home/brusli/Documents/Projects/NXP/main/MCX_LAB_6_OLED/MCX_LAB_6_OLED/board.c.obj
 .debug_abbrev  0x0000083c      0x26e CMakeFiles/led_blinky_peripheral_cm33_core0.elf.dir/home/brusli/Documents/Projects/NXP/main/MCX_LAB_6_OLED/MCX_LAB_6_OLED/clock_config.c.obj
 .debug_abbrev  0x00000aaa      0x2b3 CMakeFiles/led_blinky_peripheral_cm33_core0.elf.dir/home/brusli/Documents/Projects/NXP/main/MCX_LAB_6_OLED/MCX_LAB_6_OLED/pin_mux.c.obj
 .debug_abbrev  0x00000d5d      0x295 CMakeFiles/led_blinky_peripheral_cm33_core0.elf.dir/home/brusli/Documents/Projects/NXP/main/MCX_LAB_6_OLED/MCX_LAB_6_OLED/oled.c.obj
 .debug_abbrev  0x00000ff2      0x252 CMakeFiles/led_blinky_peripheral_cm33_core0.elf.dir/home/brusli/Documents/Projects/NXP/main/sdks/main_testing_sdk/components/uart/fsl_adapter_lpuart.c.obj
 .debug_abbrev  0x00001244       0x26 CMakeFiles/led_blinky_peripheral_cm33_core0.elf.dir/home/brusli/Documents/Projects/NXP/main/sdks/main_testing_sdk/devices/MCXN947/gcc/startup_MCXN947_cm33_core0.S.obj
 .debug_abbrev  0x0000126a      0x1cf CMakeFiles/led_blinky_peripheral_cm33_core0.elf.dir/home/brusli/Documents/Projects/NXP/main/sdks/main_testing_sdk/devices/MCXN947/system_MCXN947_cm33_core0.c.obj
 .debug_abbrev  0x00001439      0x37e CMakeFiles/led_blinky_peripheral_cm33_core0.elf.dir/home/brusli/Documents/Projects/NXP/main/sdks/main_testing_sdk/devices/MCXN947/drivers/fsl_clock.c.obj
 .debug_abbrev  0x000017b7      0x160 CMakeFiles/led_blinky_peripheral_cm33_core0.elf.dir/home/brusli/Documents/Projects/NXP/main/sdks/main_testing_sdk/devices/MCXN947/drivers/fsl_common_arm.c.obj
 .debug_abbrev  0x00001917      0x3d3 CMakeFiles/led_blinky_peripheral_cm33_core0.elf.dir/home/brusli/Documents/Projects/NXP/main/sdks/main_testing_sdk/devices/MCXN947/drivers/fsl_ctimer.c.obj
 .debug_abbrev  0x00001cea      0x30f CMakeFiles/led_blinky_peripheral_cm33_core0.elf.dir/home/brusli/Documents/Projects/NXP/main/sdks/main_testing_sdk/devices/MCXN947/drivers/fsl_gpio.c.obj
 .debug_abbrev  0x00001ff9      0x34a CMakeFiles/led_blinky_peripheral_cm33_core0.elf.dir/home/brusli/Documents/Projects/NXP/main/sdks/main_testing_sdk/devices/MCXN947/drivers/fsl_lpadc.c.obj
 .debug_abbrev  0x00002343      0x37f CMakeFiles/led_blinky_peripheral_cm33_core0.elf.dir/home/brusli/Documents/Projects/NXP/main/sdks/main_testing_sdk/devices/MCXN947/drivers/fsl_lpflexcomm.c.obj
 .debug_abbrev  0x000026c2      0x3d6 CMakeFiles/led_blinky_peripheral_cm33_core0.elf.dir/home/brusli/Documents/Projects/NXP/main/sdks/main_testing_sdk/devices/MCXN947/drivers/fsl_lpi2c.c.obj
 .debug_abbrev  0x00002a98      0x488 CMakeFiles/led_blinky_peripheral_cm33_core0.elf.dir/home/brusli/Documents/Projects/NXP/main/sdks/main_testing_sdk/devices/MCXN947/drivers/fsl_lpuart.c.obj
 .debug_abbrev  0x00002f20      0x312 CMakeFiles/led_blinky_peripheral_cm33_core0.elf.dir/home/brusli/Documents/Projects/NXP/main/sdks/main_testing_sdk/devices/MCXN947/drivers/fsl_spc.c.obj
 .debug_abbrev  0x00003232      0x187 CMakeFiles/led_blinky_peripheral_cm33_core0.elf.dir/home/brusli/Documents/Projects/NXP/main/sdks/main_testing_sdk/devices/MCXN947/drivers/fsl_reset.c.obj
 .debug_abbrev  0x000033b9      0x2b4 CMakeFiles/led_blinky_peripheral_cm33_core0.elf.dir/home/brusli/Documents/Projects/NXP/main/sdks/main_testing_sdk/devices/MCXN947/drivers/fsl_vref.c.obj
 .debug_abbrev  0x0000366d       0xd8 CMakeFiles/led_blinky_peripheral_cm33_core0.elf.dir/home/brusli/Documents/Projects/NXP/main/sdks/main_testing_sdk/devices/MCXN947/utilities/fsl_sbrk.c.obj
 .debug_abbrev  0x00003745       0x14 CMakeFiles/led_blinky_peripheral_cm33_core0.elf.dir/home/brusli/Documents/Projects/NXP/main/sdks/main_testing_sdk/devices/MCXN947/utilities/fsl_memcpy.S.obj
 .debug_abbrev  0x00003759      0x101 CMakeFiles/led_blinky_peripheral_cm33_core0.elf.dir/home/brusli/Documents/Projects/NXP/main/sdks/main_testing_sdk/devices/MCXN947/utilities/debug_console_lite/fsl_assert.c.obj
 .debug_abbrev  0x0000385a      0x25c CMakeFiles/led_blinky_peripheral_cm33_core0.elf.dir/home/brusli/Documents/Projects/NXP/main/sdks/main_testing_sdk/devices/MCXN947/utilities/debug_console_lite/fsl_debug_console.c.obj
 .debug_abbrev  0x00003ab6       0x67 /home/brusli/.mcuxpressotools/arm-gnu-toolchain-14.2.rel1-x86_64-arm-none-eabi/bin/../lib/gcc/arm-none-eabi/14.2.1/../../../../arm-none-eabi/lib/thumb/v8-m.main+fp/hard/libcr_newlib_nohost.a(_exit.o)

.debug_aranges  0x00000000     0x1068
 .debug_aranges
                0x00000000       0x70 CMakeFiles/led_blinky_peripheral_cm33_core0.elf.dir/home/brusli/Documents/Projects/NXP/main/MCX_LAB_6_OLED/MCX_LAB_6_OLED/led_blinky.c.obj
 .debug_aranges
                0x00000070       0x78 CMakeFiles/led_blinky_peripheral_cm33_core0.elf.dir/home/brusli/Documents/Projects/NXP/main/MCX_LAB_6_OLED/MCX_LAB_6_OLED/peripherals.c.obj
 .debug_aranges
                0x000000e8       0x30 CMakeFiles/led_blinky_peripheral_cm33_core0.elf.dir/home/brusli/Documents/Projects/NXP/main/MCX_LAB_6_OLED/MCX_LAB_6_OLED/board.c.obj
 .debug_aranges
                0x00000118       0x50 CMakeFiles/led_blinky_peripheral_cm33_core0.elf.dir/home/brusli/Documents/Projects/NXP/main/MCX_LAB_6_OLED/MCX_LAB_6_OLED/clock_config.c.obj
 .debug_aranges
                0x00000168       0x98 CMakeFiles/led_blinky_peripheral_cm33_core0.elf.dir/home/brusli/Documents/Projects/NXP/main/MCX_LAB_6_OLED/MCX_LAB_6_OLED/pin_mux.c.obj
 .debug_aranges
                0x00000200       0x98 CMakeFiles/led_blinky_peripheral_cm33_core0.elf.dir/home/brusli/Documents/Projects/NXP/main/MCX_LAB_6_OLED/MCX_LAB_6_OLED/oled.c.obj
 .debug_aranges
                0x00000298       0x58 CMakeFiles/led_blinky_peripheral_cm33_core0.elf.dir/home/brusli/Documents/Projects/NXP/main/sdks/main_testing_sdk/components/uart/fsl_adapter_lpuart.c.obj
 .debug_aranges
                0x000002f0       0x20 CMakeFiles/led_blinky_peripheral_cm33_core0.elf.dir/home/brusli/Documents/Projects/NXP/main/sdks/main_testing_sdk/devices/MCXN947/gcc/startup_MCXN947_cm33_core0.S.obj
 .debug_aranges
                0x00000310       0x30 CMakeFiles/led_blinky_peripheral_cm33_core0.elf.dir/home/brusli/Documents/Projects/NXP/main/sdks/main_testing_sdk/devices/MCXN947/system_MCXN947_cm33_core0.c.obj
 .debug_aranges
                0x00000340      0x348 CMakeFiles/led_blinky_peripheral_cm33_core0.elf.dir/home/brusli/Documents/Projects/NXP/main/sdks/main_testing_sdk/devices/MCXN947/drivers/fsl_clock.c.obj
 .debug_aranges
                0x00000688       0x38 CMakeFiles/led_blinky_peripheral_cm33_core0.elf.dir/home/brusli/Documents/Projects/NXP/main/sdks/main_testing_sdk/devices/MCXN947/drivers/fsl_common_arm.c.obj
 .debug_aranges
                0x000006c0       0xe0 CMakeFiles/led_blinky_peripheral_cm33_core0.elf.dir/home/brusli/Documents/Projects/NXP/main/sdks/main_testing_sdk/devices/MCXN947/drivers/fsl_ctimer.c.obj
 .debug_aranges
                0x000007a0       0x90 CMakeFiles/led_blinky_peripheral_cm33_core0.elf.dir/home/brusli/Documents/Projects/NXP/main/sdks/main_testing_sdk/devices/MCXN947/drivers/fsl_gpio.c.obj
 .debug_aranges
                0x00000830       0xe8 CMakeFiles/led_blinky_peripheral_cm33_core0.elf.dir/home/brusli/Documents/Projects/NXP/main/sdks/main_testing_sdk/devices/MCXN947/drivers/fsl_lpadc.c.obj
 .debug_aranges
                0x00000918       0xc0 CMakeFiles/led_blinky_peripheral_cm33_core0.elf.dir/home/brusli/Documents/Projects/NXP/main/sdks/main_testing_sdk/devices/MCXN947/drivers/fsl_lpflexcomm.c.obj
 .debug_aranges
                0x000009d8      0x1c0 CMakeFiles/led_blinky_peripheral_cm33_core0.elf.dir/home/brusli/Documents/Projects/NXP/main/sdks/main_testing_sdk/devices/MCXN947/drivers/fsl_lpi2c.c.obj
 .debug_aranges
                0x00000b98      0x148 CMakeFiles/led_blinky_peripheral_cm33_core0.elf.dir/home/brusli/Documents/Projects/NXP/main/sdks/main_testing_sdk/devices/MCXN947/drivers/fsl_lpuart.c.obj
 .debug_aranges
                0x00000ce0      0x1f0 CMakeFiles/led_blinky_peripheral_cm33_core0.elf.dir/home/brusli/Documents/Projects/NXP/main/sdks/main_testing_sdk/devices/MCXN947/drivers/fsl_spc.c.obj
 .debug_aranges
                0x00000ed0       0x30 CMakeFiles/led_blinky_peripheral_cm33_core0.elf.dir/home/brusli/Documents/Projects/NXP/main/sdks/main_testing_sdk/devices/MCXN947/drivers/fsl_reset.c.obj
 .debug_aranges
                0x00000f00       0x68 CMakeFiles/led_blinky_peripheral_cm33_core0.elf.dir/home/brusli/Documents/Projects/NXP/main/sdks/main_testing_sdk/devices/MCXN947/drivers/fsl_vref.c.obj
 .debug_aranges
                0x00000f68       0x20 CMakeFiles/led_blinky_peripheral_cm33_core0.elf.dir/home/brusli/Documents/Projects/NXP/main/sdks/main_testing_sdk/devices/MCXN947/utilities/fsl_sbrk.c.obj
 .debug_aranges
                0x00000f88       0x20 CMakeFiles/led_blinky_peripheral_cm33_core0.elf.dir/home/brusli/Documents/Projects/NXP/main/sdks/main_testing_sdk/devices/MCXN947/utilities/fsl_memcpy.S.obj
 .debug_aranges
                0x00000fa8       0x28 CMakeFiles/led_blinky_peripheral_cm33_core0.elf.dir/home/brusli/Documents/Projects/NXP/main/sdks/main_testing_sdk/devices/MCXN947/utilities/debug_console_lite/fsl_assert.c.obj
 .debug_aranges
                0x00000fd0       0x78 CMakeFiles/led_blinky_peripheral_cm33_core0.elf.dir/home/brusli/Documents/Projects/NXP/main/sdks/main_testing_sdk/devices/MCXN947/utilities/debug_console_lite/fsl_debug_console.c.obj
 .debug_aranges
                0x00001048       0x20 /home/brusli/.mcuxpressotools/arm-gnu-toolchain-14.2.rel1-x86_64-arm-none-eabi/bin/../lib/gcc/arm-none-eabi/14.2.1/../../../../arm-none-eabi/lib/thumb/v8-m.main+fp/hard/libcr_newlib_nohost.a(_exit.o)

.debug_rnglists
                0x00000000      0xc59
 .debug_rnglists
                0x00000000       0x50 CMakeFiles/led_blinky_peripheral_cm33_core0.elf.dir/home/brusli/Documents/Projects/NXP/main/MCX_LAB_6_OLED/MCX_LAB_6_OLED/led_blinky.c.obj
 .debug_rnglists
                0x00000050       0x55 CMakeFiles/led_blinky_peripheral_cm33_core0.elf.dir/home/brusli/Documents/Projects/NXP/main/MCX_LAB_6_OLED/MCX_LAB_6_OLED/peripherals.c.obj
 .debug_rnglists
                0x000000a5       0x1f CMakeFiles/led_blinky_peripheral_cm33_core0.elf.dir/home/brusli/Documents/Projects/NXP/main/MCX_LAB_6_OLED/MCX_LAB_6_OLED/board.c.obj
 .debug_rnglists
                0x000000c4       0x3d CMakeFiles/led_blinky_peripheral_cm33_core0.elf.dir/home/brusli/Documents/Projects/NXP/main/MCX_LAB_6_OLED/MCX_LAB_6_OLED/clock_config.c.obj
 .debug_rnglists
                0x00000101       0x76 CMakeFiles/led_blinky_peripheral_cm33_core0.elf.dir/home/brusli/Documents/Projects/NXP/main/MCX_LAB_6_OLED/MCX_LAB_6_OLED/pin_mux.c.obj
 .debug_rnglists
                0x00000177       0x70 CMakeFiles/led_blinky_peripheral_cm33_core0.elf.dir/home/brusli/Documents/Projects/NXP/main/MCX_LAB_6_OLED/MCX_LAB_6_OLED/oled.c.obj
 .debug_rnglists
                0x000001e7       0x41 CMakeFiles/led_blinky_peripheral_cm33_core0.elf.dir/home/brusli/Documents/Projects/NXP/main/sdks/main_testing_sdk/components/uart/fsl_adapter_lpuart.c.obj
 .debug_rnglists
                0x00000228       0x20 CMakeFiles/led_blinky_peripheral_cm33_core0.elf.dir/home/brusli/Documents/Projects/NXP/main/sdks/main_testing_sdk/devices/MCXN947/system_MCXN947_cm33_core0.c.obj
 .debug_rnglists
                0x00000248      0x29e CMakeFiles/led_blinky_peripheral_cm33_core0.elf.dir/home/brusli/Documents/Projects/NXP/main/sdks/main_testing_sdk/devices/MCXN947/drivers/fsl_clock.c.obj
 .debug_rnglists
                0x000004e6       0x26 CMakeFiles/led_blinky_peripheral_cm33_core0.elf.dir/home/brusli/Documents/Projects/NXP/main/sdks/main_testing_sdk/devices/MCXN947/drivers/fsl_common_arm.c.obj
 .debug_rnglists
                0x0000050c       0xac CMakeFiles/led_blinky_peripheral_cm33_core0.elf.dir/home/brusli/Documents/Projects/NXP/main/sdks/main_testing_sdk/devices/MCXN947/drivers/fsl_ctimer.c.obj
 .debug_rnglists
                0x000005b8       0x69 CMakeFiles/led_blinky_peripheral_cm33_core0.elf.dir/home/brusli/Documents/Projects/NXP/main/sdks/main_testing_sdk/devices/MCXN947/drivers/fsl_gpio.c.obj
 .debug_rnglists
                0x00000621       0xb5 CMakeFiles/led_blinky_peripheral_cm33_core0.elf.dir/home/brusli/Documents/Projects/NXP/main/sdks/main_testing_sdk/devices/MCXN947/drivers/fsl_lpadc.c.obj
 .debug_rnglists
                0x000006d6       0x90 CMakeFiles/led_blinky_peripheral_cm33_core0.elf.dir/home/brusli/Documents/Projects/NXP/main/sdks/main_testing_sdk/devices/MCXN947/drivers/fsl_lpflexcomm.c.obj
 .debug_rnglists
                0x00000766      0x189 CMakeFiles/led_blinky_peripheral_cm33_core0.elf.dir/home/brusli/Documents/Projects/NXP/main/sdks/main_testing_sdk/devices/MCXN947/drivers/fsl_lpi2c.c.obj
 .debug_rnglists
                0x000008ef      0x100 CMakeFiles/led_blinky_peripheral_cm33_core0.elf.dir/home/brusli/Documents/Projects/NXP/main/sdks/main_testing_sdk/devices/MCXN947/drivers/fsl_lpuart.c.obj
 .debug_rnglists
                0x000009ef      0x17a CMakeFiles/led_blinky_peripheral_cm33_core0.elf.dir/home/brusli/Documents/Projects/NXP/main/sdks/main_testing_sdk/devices/MCXN947/drivers/fsl_spc.c.obj
 .debug_rnglists
                0x00000b69       0x1f CMakeFiles/led_blinky_peripheral_cm33_core0.elf.dir/home/brusli/Documents/Projects/NXP/main/sdks/main_testing_sdk/devices/MCXN947/drivers/fsl_reset.c.obj
 .debug_rnglists
                0x00000b88       0x4c CMakeFiles/led_blinky_peripheral_cm33_core0.elf.dir/home/brusli/Documents/Projects/NXP/main/sdks/main_testing_sdk/devices/MCXN947/drivers/fsl_vref.c.obj
 .debug_rnglists
                0x00000bd4       0x13 CMakeFiles/led_blinky_peripheral_cm33_core0.elf.dir/home/brusli/Documents/Projects/NXP/main/sdks/main_testing_sdk/devices/MCXN947/utilities/fsl_sbrk.c.obj
 .debug_rnglists
                0x00000be7       0x19 CMakeFiles/led_blinky_peripheral_cm33_core0.elf.dir/home/brusli/Documents/Projects/NXP/main/sdks/main_testing_sdk/devices/MCXN947/utilities/debug_console_lite/fsl_assert.c.obj
 .debug_rnglists
                0x00000c00       0x59 CMakeFiles/led_blinky_peripheral_cm33_core0.elf.dir/home/brusli/Documents/Projects/NXP/main/sdks/main_testing_sdk/devices/MCXN947/utilities/debug_console_lite/fsl_debug_console.c.obj

.debug_line     0x00000000     0xd5a6
 .debug_line    0x00000000      0x7f1 CMakeFiles/led_blinky_peripheral_cm33_core0.elf.dir/home/brusli/Documents/Projects/NXP/main/MCX_LAB_6_OLED/MCX_LAB_6_OLED/led_blinky.c.obj
 .debug_line    0x000007f1      0x4f9 CMakeFiles/led_blinky_peripheral_cm33_core0.elf.dir/home/brusli/Documents/Projects/NXP/main/MCX_LAB_6_OLED/MCX_LAB_6_OLED/peripherals.c.obj
 .debug_line    0x00000cea      0x33f CMakeFiles/led_blinky_peripheral_cm33_core0.elf.dir/home/brusli/Documents/Projects/NXP/main/MCX_LAB_6_OLED/MCX_LAB_6_OLED/board.c.obj
 .debug_line    0x00001029      0x4f3 CMakeFiles/led_blinky_peripheral_cm33_core0.elf.dir/home/brusli/Documents/Projects/NXP/main/MCX_LAB_6_OLED/MCX_LAB_6_OLED/clock_config.c.obj
 .debug_line    0x0000151c      0x854 CMakeFiles/led_blinky_peripheral_cm33_core0.elf.dir/home/brusli/Documents/Projects/NXP/main/MCX_LAB_6_OLED/MCX_LAB_6_OLED/pin_mux.c.obj
 .debug_line    0x00001d70      0x6ad CMakeFiles/led_blinky_peripheral_cm33_core0.elf.dir/home/brusli/Documents/Projects/NXP/main/MCX_LAB_6_OLED/MCX_LAB_6_OLED/oled.c.obj
 .debug_line    0x0000241d      0x53c CMakeFiles/led_blinky_peripheral_cm33_core0.elf.dir/home/brusli/Documents/Projects/NXP/main/sdks/main_testing_sdk/components/uart/fsl_adapter_lpuart.c.obj
 .debug_line    0x00002959      0x3b9 CMakeFiles/led_blinky_peripheral_cm33_core0.elf.dir/home/brusli/Documents/Projects/NXP/main/sdks/main_testing_sdk/devices/MCXN947/gcc/startup_MCXN947_cm33_core0.S.obj
 .debug_line    0x00002d12      0x44b CMakeFiles/led_blinky_peripheral_cm33_core0.elf.dir/home/brusli/Documents/Projects/NXP/main/sdks/main_testing_sdk/devices/MCXN947/system_MCXN947_cm33_core0.c.obj
 .debug_line    0x0000315d     0x272e CMakeFiles/led_blinky_peripheral_cm33_core0.elf.dir/home/brusli/Documents/Projects/NXP/main/sdks/main_testing_sdk/devices/MCXN947/drivers/fsl_clock.c.obj
 .debug_line    0x0000588b      0x2f4 CMakeFiles/led_blinky_peripheral_cm33_core0.elf.dir/home/brusli/Documents/Projects/NXP/main/sdks/main_testing_sdk/devices/MCXN947/drivers/fsl_common_arm.c.obj
 .debug_line    0x00005b7f      0xaac CMakeFiles/led_blinky_peripheral_cm33_core0.elf.dir/home/brusli/Documents/Projects/NXP/main/sdks/main_testing_sdk/devices/MCXN947/drivers/fsl_ctimer.c.obj
 .debug_line    0x0000662b      0x553 CMakeFiles/led_blinky_peripheral_cm33_core0.elf.dir/home/brusli/Documents/Projects/NXP/main/sdks/main_testing_sdk/devices/MCXN947/drivers/fsl_gpio.c.obj
 .debug_line    0x00006b7e      0xb09 CMakeFiles/led_blinky_peripheral_cm33_core0.elf.dir/home/brusli/Documents/Projects/NXP/main/sdks/main_testing_sdk/devices/MCXN947/drivers/fsl_lpadc.c.obj
 .debug_line    0x00007687      0x6d1 CMakeFiles/led_blinky_peripheral_cm33_core0.elf.dir/home/brusli/Documents/Projects/NXP/main/sdks/main_testing_sdk/devices/MCXN947/drivers/fsl_lpflexcomm.c.obj
 .debug_line    0x00007d58     0x18f7 CMakeFiles/led_blinky_peripheral_cm33_core0.elf.dir/home/brusli/Documents/Projects/NXP/main/sdks/main_testing_sdk/devices/MCXN947/drivers/fsl_lpi2c.c.obj
 .debug_line    0x0000964f     0x16fa CMakeFiles/led_blinky_peripheral_cm33_core0.elf.dir/home/brusli/Documents/Projects/NXP/main/sdks/main_testing_sdk/devices/MCXN947/drivers/fsl_lpuart.c.obj
 .debug_line    0x0000ad49     0x1133 CMakeFiles/led_blinky_peripheral_cm33_core0.elf.dir/home/brusli/Documents/Projects/NXP/main/sdks/main_testing_sdk/devices/MCXN947/drivers/fsl_spc.c.obj
 .debug_line    0x0000be7c      0x32b CMakeFiles/led_blinky_peripheral_cm33_core0.elf.dir/home/brusli/Documents/Projects/NXP/main/sdks/main_testing_sdk/devices/MCXN947/drivers/fsl_reset.c.obj
 .debug_line    0x0000c1a7      0x5cf CMakeFiles/led_blinky_peripheral_cm33_core0.elf.dir/home/brusli/Documents/Projects/NXP/main/sdks/main_testing_sdk/devices/MCXN947/drivers/fsl_vref.c.obj
 .debug_line    0x0000c776      0x24e CMakeFiles/led_blinky_peripheral_cm33_core0.elf.dir/home/brusli/Documents/Projects/NXP/main/sdks/main_testing_sdk/devices/MCXN947/utilities/fsl_sbrk.c.obj
 .debug_line    0x0000c9c4       0x88 CMakeFiles/led_blinky_peripheral_cm33_core0.elf.dir/home/brusli/Documents/Projects/NXP/main/sdks/main_testing_sdk/devices/MCXN947/utilities/fsl_memcpy.S.obj
 .debug_line    0x0000ca4c      0x2b7 CMakeFiles/led_blinky_peripheral_cm33_core0.elf.dir/home/brusli/Documents/Projects/NXP/main/sdks/main_testing_sdk/devices/MCXN947/utilities/debug_console_lite/fsl_assert.c.obj
 .debug_line    0x0000cd03      0x85f CMakeFiles/led_blinky_peripheral_cm33_core0.elf.dir/home/brusli/Documents/Projects/NXP/main/sdks/main_testing_sdk/devices/MCXN947/utilities/debug_console_lite/fsl_debug_console.c.obj
 .debug_line    0x0000d562       0x44 /home/brusli/.mcuxpressotools/arm-gnu-toolchain-14.2.rel1-x86_64-arm-none-eabi/bin/../lib/gcc/arm-none-eabi/14.2.1/../../../../arm-none-eabi/lib/thumb/v8-m.main+fp/hard/libcr_newlib_nohost.a(_exit.o)

.debug_str      0x00000000    0x11e5a
 .debug_str     0x00000000    0x11e5a CMakeFiles/led_blinky_peripheral_cm33_core0.elf.dir/home/brusli/Documents/Projects/NXP/main/MCX_LAB_6_OLED/MCX_LAB_6_OLED/led_blinky.c.obj
                               0x3524 (size before relaxing)
 .debug_str     0x00011e5a     0x2d1b CMakeFiles/led_blinky_peripheral_cm33_core0.elf.dir/home/brusli/Documents/Projects/NXP/main/MCX_LAB_6_OLED/MCX_LAB_6_OLED/peripherals.c.obj
 .debug_str     0x00011e5a     0x2bc2 CMakeFiles/led_blinky_peripheral_cm33_core0.elf.dir/home/brusli/Documents/Projects/NXP/main/MCX_LAB_6_OLED/MCX_LAB_6_OLED/board.c.obj
 .debug_str     0x00011e5a     0x4293 CMakeFiles/led_blinky_peripheral_cm33_core0.elf.dir/home/brusli/Documents/Projects/NXP/main/MCX_LAB_6_OLED/MCX_LAB_6_OLED/clock_config.c.obj
 .debug_str     0x00011e5a     0x2041 CMakeFiles/led_blinky_peripheral_cm33_core0.elf.dir/home/brusli/Documents/Projects/NXP/main/MCX_LAB_6_OLED/MCX_LAB_6_OLED/pin_mux.c.obj
 .debug_str     0x00011e5a     0x13ed CMakeFiles/led_blinky_peripheral_cm33_core0.elf.dir/home/brusli/Documents/Projects/NXP/main/MCX_LAB_6_OLED/MCX_LAB_6_OLED/oled.c.obj
 .debug_str     0x00011e5a     0x17e2 CMakeFiles/led_blinky_peripheral_cm33_core0.elf.dir/home/brusli/Documents/Projects/NXP/main/sdks/main_testing_sdk/components/uart/fsl_adapter_lpuart.c.obj
 .debug_str     0x00011e5a     0x1e95 CMakeFiles/led_blinky_peripheral_cm33_core0.elf.dir/home/brusli/Documents/Projects/NXP/main/sdks/main_testing_sdk/devices/MCXN947/gcc/startup_MCXN947_cm33_core0.S.obj
 .debug_str     0x00011e5a     0x1b1a CMakeFiles/led_blinky_peripheral_cm33_core0.elf.dir/home/brusli/Documents/Projects/NXP/main/sdks/main_testing_sdk/devices/MCXN947/system_MCXN947_cm33_core0.c.obj
 .debug_str     0x00011e5a     0x5ff9 CMakeFiles/led_blinky_peripheral_cm33_core0.elf.dir/home/brusli/Documents/Projects/NXP/main/sdks/main_testing_sdk/devices/MCXN947/drivers/fsl_clock.c.obj
 .debug_str     0x00011e5a      0x40d CMakeFiles/led_blinky_peripheral_cm33_core0.elf.dir/home/brusli/Documents/Projects/NXP/main/sdks/main_testing_sdk/devices/MCXN947/drivers/fsl_common_arm.c.obj
 .debug_str     0x00011e5a     0x3a66 CMakeFiles/led_blinky_peripheral_cm33_core0.elf.dir/home/brusli/Documents/Projects/NXP/main/sdks/main_testing_sdk/devices/MCXN947/drivers/fsl_ctimer.c.obj
 .debug_str     0x00011e5a     0x22ea CMakeFiles/led_blinky_peripheral_cm33_core0.elf.dir/home/brusli/Documents/Projects/NXP/main/sdks/main_testing_sdk/devices/MCXN947/drivers/fsl_gpio.c.obj
 .debug_str     0x00011e5a     0x38c3 CMakeFiles/led_blinky_peripheral_cm33_core0.elf.dir/home/brusli/Documents/Projects/NXP/main/sdks/main_testing_sdk/devices/MCXN947/drivers/fsl_lpadc.c.obj
 .debug_str     0x00011e5a     0x3730 CMakeFiles/led_blinky_peripheral_cm33_core0.elf.dir/home/brusli/Documents/Projects/NXP/main/sdks/main_testing_sdk/devices/MCXN947/drivers/fsl_lpflexcomm.c.obj
 .debug_str     0x00011e5a     0x43cc CMakeFiles/led_blinky_peripheral_cm33_core0.elf.dir/home/brusli/Documents/Projects/NXP/main/sdks/main_testing_sdk/devices/MCXN947/drivers/fsl_lpi2c.c.obj
 .debug_str     0x00011e5a     0x2f66 CMakeFiles/led_blinky_peripheral_cm33_core0.elf.dir/home/brusli/Documents/Projects/NXP/main/sdks/main_testing_sdk/devices/MCXN947/drivers/fsl_lpuart.c.obj
 .debug_str     0x00011e5a     0x1d6e CMakeFiles/led_blinky_peripheral_cm33_core0.elf.dir/home/brusli/Documents/Projects/NXP/main/sdks/main_testing_sdk/devices/MCXN947/drivers/fsl_spc.c.obj
 .debug_str     0x00011e5a     0x153a CMakeFiles/led_blinky_peripheral_cm33_core0.elf.dir/home/brusli/Documents/Projects/NXP/main/sdks/main_testing_sdk/devices/MCXN947/drivers/fsl_reset.c.obj
 .debug_str     0x00011e5a     0x2242 CMakeFiles/led_blinky_peripheral_cm33_core0.elf.dir/home/brusli/Documents/Projects/NXP/main/sdks/main_testing_sdk/devices/MCXN947/drivers/fsl_vref.c.obj
 .debug_str     0x00011e5a      0x28a CMakeFiles/led_blinky_peripheral_cm33_core0.elf.dir/home/brusli/Documents/Projects/NXP/main/sdks/main_testing_sdk/devices/MCXN947/utilities/fsl_sbrk.c.obj
 .debug_str     0x00011e5a       0xc8 CMakeFiles/led_blinky_peripheral_cm33_core0.elf.dir/home/brusli/Documents/Projects/NXP/main/sdks/main_testing_sdk/devices/MCXN947/utilities/fsl_memcpy.S.obj
 .debug_str     0x00011e5a      0x2e3 CMakeFiles/led_blinky_peripheral_cm33_core0.elf.dir/home/brusli/Documents/Projects/NXP/main/sdks/main_testing_sdk/devices/MCXN947/utilities/debug_console_lite/fsl_assert.c.obj
 .debug_str     0x00011e5a     0x1486 CMakeFiles/led_blinky_peripheral_cm33_core0.elf.dir/home/brusli/Documents/Projects/NXP/main/sdks/main_testing_sdk/devices/MCXN947/utilities/debug_console_lite/fsl_debug_console.c.obj
 .debug_str     0x00011e5a      0x203 /home/brusli/.mcuxpressotools/arm-gnu-toolchain-14.2.rel1-x86_64-arm-none-eabi/bin/../lib/gcc/arm-none-eabi/14.2.1/../../../../arm-none-eabi/lib/thumb/v8-m.main+fp/hard/libcr_newlib_nohost.a(_exit.o)

.comment        0x00000000       0x45
 .comment       0x00000000       0x45 CMakeFiles/led_blinky_peripheral_cm33_core0.elf.dir/home/brusli/Documents/Projects/NXP/main/MCX_LAB_6_OLED/MCX_LAB_6_OLED/led_blinky.c.obj
                                 0x46 (size before relaxing)
 .comment       0x00000045       0x46 CMakeFiles/led_blinky_peripheral_cm33_core0.elf.dir/home/brusli/Documents/Projects/NXP/main/MCX_LAB_6_OLED/MCX_LAB_6_OLED/peripherals.c.obj
 .comment       0x00000045       0x46 CMakeFiles/led_blinky_peripheral_cm33_core0.elf.dir/home/brusli/Documents/Projects/NXP/main/MCX_LAB_6_OLED/MCX_LAB_6_OLED/board.c.obj
 .comment       0x00000045       0x46 CMakeFiles/led_blinky_peripheral_cm33_core0.elf.dir/home/brusli/Documents/Projects/NXP/main/MCX_LAB_6_OLED/MCX_LAB_6_OLED/clock_config.c.obj
 .comment       0x00000045       0x46 CMakeFiles/led_blinky_peripheral_cm33_core0.elf.dir/home/brusli/Documents/Projects/NXP/main/MCX_LAB_6_OLED/MCX_LAB_6_OLED/pin_mux.c.obj
 .comment       0x00000045       0x46 CMakeFiles/led_blinky_peripheral_cm33_core0.elf.dir/home/brusli/Documents/Projects/NXP/main/MCX_LAB_6_OLED/MCX_LAB_6_OLED/oled.c.obj
 .comment       0x00000045       0x46 CMakeFiles/led_blinky_peripheral_cm33_core0.elf.dir/home/brusli/Documents/Projects/NXP/main/sdks/main_testing_sdk/components/uart/fsl_adapter_lpuart.c.obj
 .comment       0x00000045       0x46 CMakeFiles/led_blinky_peripheral_cm33_core0.elf.dir/home/brusli/Documents/Projects/NXP/main/sdks/main_testing_sdk/devices/MCXN947/system_MCXN947_cm33_core0.c.obj
 .comment       0x00000045       0x46 CMakeFiles/led_blinky_peripheral_cm33_core0.elf.dir/home/brusli/Documents/Projects/NXP/main/sdks/main_testing_sdk/devices/MCXN947/drivers/fsl_clock.c.obj
 .comment       0x00000045       0x46 CMakeFiles/led_blinky_peripheral_cm33_core0.elf.dir/home/brusli/Documents/Projects/NXP/main/sdks/main_testing_sdk/devices/MCXN947/drivers/fsl_common_arm.c.obj
 .comment       0x00000045       0x46 CMakeFiles/led_blinky_peripheral_cm33_core0.elf.dir/home/brusli/Documents/Projects/NXP/main/sdks/main_testing_sdk/devices/MCXN947/drivers/fsl_ctimer.c.obj
 .comment       0x00000045       0x46 CMakeFiles/led_blinky_peripheral_cm33_core0.elf.dir/home/brusli/Documents/Projects/NXP/main/sdks/main_testing_sdk/devices/MCXN947/drivers/fsl_gpio.c.obj
 .comment       0x00000045       0x46 CMakeFiles/led_blinky_peripheral_cm33_core0.elf.dir/home/brusli/Documents/Projects/NXP/main/sdks/main_testing_sdk/devices/MCXN947/drivers/fsl_lpadc.c.obj
 .comment       0x00000045       0x46 CMakeFiles/led_blinky_peripheral_cm33_core0.elf.dir/home/brusli/Documents/Projects/NXP/main/sdks/main_testing_sdk/devices/MCXN947/drivers/fsl_lpflexcomm.c.obj
 .comment       0x00000045       0x46 CMakeFiles/led_blinky_peripheral_cm33_core0.elf.dir/home/brusli/Documents/Projects/NXP/main/sdks/main_testing_sdk/devices/MCXN947/drivers/fsl_lpi2c.c.obj
 .comment       0x00000045       0x46 CMakeFiles/led_blinky_peripheral_cm33_core0.elf.dir/home/brusli/Documents/Projects/NXP/main/sdks/main_testing_sdk/devices/MCXN947/drivers/fsl_lpuart.c.obj
 .comment       0x00000045       0x46 CMakeFiles/led_blinky_peripheral_cm33_core0.elf.dir/home/brusli/Documents/Projects/NXP/main/sdks/main_testing_sdk/devices/MCXN947/drivers/fsl_spc.c.obj
 .comment       0x00000045       0x46 CMakeFiles/led_blinky_peripheral_cm33_core0.elf.dir/home/brusli/Documents/Projects/NXP/main/sdks/main_testing_sdk/devices/MCXN947/drivers/fsl_reset.c.obj
 .comment       0x00000045       0x46 CMakeFiles/led_blinky_peripheral_cm33_core0.elf.dir/home/brusli/Documents/Projects/NXP/main/sdks/main_testing_sdk/devices/MCXN947/drivers/fsl_vref.c.obj
 .comment       0x00000045       0x46 CMakeFiles/led_blinky_peripheral_cm33_core0.elf.dir/home/brusli/Documents/Projects/NXP/main/sdks/main_testing_sdk/devices/MCXN947/utilities/fsl_sbrk.c.obj
 .comment       0x00000045       0x46 CMakeFiles/led_blinky_peripheral_cm33_core0.elf.dir/home/brusli/Documents/Projects/NXP/main/sdks/main_testing_sdk/devices/MCXN947/utilities/debug_console_lite/fsl_assert.c.obj
 .comment       0x00000045       0x46 CMakeFiles/led_blinky_peripheral_cm33_core0.elf.dir/home/brusli/Documents/Projects/NXP/main/sdks/main_testing_sdk/devices/MCXN947/utilities/debug_console_lite/fsl_debug_console.c.obj
 .comment       0x00000045       0x46 /home/brusli/.mcuxpressotools/arm-gnu-toolchain-14.2.rel1-x86_64-arm-none-eabi/bin/../lib/gcc/arm-none-eabi/14.2.1/../../../../arm-none-eabi/lib/thumb/v8-m.main+fp/hard/libcr_newlib_nohost.a(_exit.o)

.debug_frame    0x00000000     0x4a2c
 .debug_frame   0x00000000      0x1b4 CMakeFiles/led_blinky_peripheral_cm33_core0.elf.dir/home/brusli/Documents/Projects/NXP/main/MCX_LAB_6_OLED/MCX_LAB_6_OLED/led_blinky.c.obj
 .debug_frame   0x000001b4      0x180 CMakeFiles/led_blinky_peripheral_cm33_core0.elf.dir/home/brusli/Documents/Projects/NXP/main/MCX_LAB_6_OLED/MCX_LAB_6_OLED/peripherals.c.obj
 .debug_frame   0x00000334       0x7c CMakeFiles/led_blinky_peripheral_cm33_core0.elf.dir/home/brusli/Documents/Projects/NXP/main/MCX_LAB_6_OLED/MCX_LAB_6_OLED/board.c.obj
 .debug_frame   0x000003b0      0x108 CMakeFiles/led_blinky_peripheral_cm33_core0.elf.dir/home/brusli/Documents/Projects/NXP/main/MCX_LAB_6_OLED/MCX_LAB_6_OLED/clock_config.c.obj
 .debug_frame   0x000004b8      0x244 CMakeFiles/led_blinky_peripheral_cm33_core0.elf.dir/home/brusli/Documents/Projects/NXP/main/MCX_LAB_6_OLED/MCX_LAB_6_OLED/pin_mux.c.obj
 .debug_frame   0x000006fc      0x278 CMakeFiles/led_blinky_peripheral_cm33_core0.elf.dir/home/brusli/Documents/Projects/NXP/main/MCX_LAB_6_OLED/MCX_LAB_6_OLED/oled.c.obj
 .debug_frame   0x00000974      0x138 CMakeFiles/led_blinky_peripheral_cm33_core0.elf.dir/home/brusli/Documents/Projects/NXP/main/sdks/main_testing_sdk/components/uart/fsl_adapter_lpuart.c.obj
 .debug_frame   0x00000aac       0x68 CMakeFiles/led_blinky_peripheral_cm33_core0.elf.dir/home/brusli/Documents/Projects/NXP/main/sdks/main_testing_sdk/devices/MCXN947/system_MCXN947_cm33_core0.c.obj
 .debug_frame   0x00000b14      0xf28 CMakeFiles/led_blinky_peripheral_cm33_core0.elf.dir/home/brusli/Documents/Projects/NXP/main/sdks/main_testing_sdk/devices/MCXN947/drivers/fsl_clock.c.obj
 .debug_frame   0x00001a3c       0xa0 CMakeFiles/led_blinky_peripheral_cm33_core0.elf.dir/home/brusli/Documents/Projects/NXP/main/sdks/main_testing_sdk/devices/MCXN947/drivers/fsl_common_arm.c.obj
 .debug_frame   0x00001adc      0x3a4 CMakeFiles/led_blinky_peripheral_cm33_core0.elf.dir/home/brusli/Documents/Projects/NXP/main/sdks/main_testing_sdk/devices/MCXN947/drivers/fsl_ctimer.c.obj
 .debug_frame   0x00001e80      0x24c CMakeFiles/led_blinky_peripheral_cm33_core0.elf.dir/home/brusli/Documents/Projects/NXP/main/sdks/main_testing_sdk/devices/MCXN947/drivers/fsl_gpio.c.obj
 .debug_frame   0x000020cc      0x3e8 CMakeFiles/led_blinky_peripheral_cm33_core0.elf.dir/home/brusli/Documents/Projects/NXP/main/sdks/main_testing_sdk/devices/MCXN947/drivers/fsl_lpadc.c.obj
 .debug_frame   0x000024b4      0x2c8 CMakeFiles/led_blinky_peripheral_cm33_core0.elf.dir/home/brusli/Documents/Projects/NXP/main/sdks/main_testing_sdk/devices/MCXN947/drivers/fsl_lpflexcomm.c.obj
 .debug_frame   0x0000277c      0x7ec CMakeFiles/led_blinky_peripheral_cm33_core0.elf.dir/home/brusli/Documents/Projects/NXP/main/sdks/main_testing_sdk/devices/MCXN947/drivers/fsl_lpi2c.c.obj
 .debug_frame   0x00002f68      0x5ac CMakeFiles/led_blinky_peripheral_cm33_core0.elf.dir/home/brusli/Documents/Projects/NXP/main/sdks/main_testing_sdk/devices/MCXN947/drivers/fsl_lpuart.c.obj
 .debug_frame   0x00003514      0x8dc CMakeFiles/led_blinky_peripheral_cm33_core0.elf.dir/home/brusli/Documents/Projects/NXP/main/sdks/main_testing_sdk/devices/MCXN947/drivers/fsl_spc.c.obj
 .debug_frame   0x00003df0       0x7c CMakeFiles/led_blinky_peripheral_cm33_core0.elf.dir/home/brusli/Documents/Projects/NXP/main/sdks/main_testing_sdk/devices/MCXN947/drivers/fsl_reset.c.obj
 .debug_frame   0x00003e6c      0x188 CMakeFiles/led_blinky_peripheral_cm33_core0.elf.dir/home/brusli/Documents/Projects/NXP/main/sdks/main_testing_sdk/devices/MCXN947/drivers/fsl_vref.c.obj
 .debug_frame   0x00003ff4       0x34 CMakeFiles/led_blinky_peripheral_cm33_core0.elf.dir/home/brusli/Documents/Projects/NXP/main/sdks/main_testing_sdk/devices/MCXN947/utilities/fsl_sbrk.c.obj
 .debug_frame   0x00004028       0x58 CMakeFiles/led_blinky_peripheral_cm33_core0.elf.dir/home/brusli/Documents/Projects/NXP/main/sdks/main_testing_sdk/devices/MCXN947/utilities/debug_console_lite/fsl_assert.c.obj
 .debug_frame   0x00004080      0x1f0 CMakeFiles/led_blinky_peripheral_cm33_core0.elf.dir/home/brusli/Documents/Projects/NXP/main/sdks/main_testing_sdk/devices/MCXN947/utilities/debug_console_lite/fsl_debug_console.c.obj
 .debug_frame   0x00004270       0xac /home/brusli/.mcuxpressotools/arm-gnu-toolchain-14.2.rel1-x86_64-arm-none-eabi/bin/../lib/gcc/arm-none-eabi/14.2.1/thumb/v8-m.main+fp/hard/libgcc.a(_arm_addsubdf3.o)
 .debug_frame   0x0000431c       0x50 /home/brusli/.mcuxpressotools/arm-gnu-toolchain-14.2.rel1-x86_64-arm-none-eabi/bin/../lib/gcc/arm-none-eabi/14.2.1/thumb/v8-m.main+fp/hard/libgcc.a(_arm_muldivdf3.o)
 .debug_frame   0x0000436c       0x2c /home/brusli/.mcuxpressotools/arm-gnu-toolchain-14.2.rel1-x86_64-arm-none-eabi/bin/../lib/gcc/arm-none-eabi/14.2.1/thumb/v8-m.main+fp/hard/libgcc.a(_aeabi_uldivmod.o)
 .debug_frame   0x00004398       0x2c /home/brusli/.mcuxpressotools/arm-gnu-toolchain-14.2.rel1-x86_64-arm-none-eabi/bin/../lib/gcc/arm-none-eabi/14.2.1/thumb/v8-m.main+fp/hard/libgcc.a(_fixunssfdi.o)
 .debug_frame   0x000043c4       0x38 /home/brusli/.mcuxpressotools/arm-gnu-toolchain-14.2.rel1-x86_64-arm-none-eabi/bin/../lib/gcc/arm-none-eabi/14.2.1/thumb/v8-m.main+fp/hard/libgcc.a(_udivmoddi4.o)
 .debug_frame   0x000043fc       0x24 /home/brusli/.mcuxpressotools/arm-gnu-toolchain-14.2.rel1-x86_64-arm-none-eabi/bin/../lib/gcc/arm-none-eabi/14.2.1/thumb/v8-m.main+fp/hard/libgcc.a(_arm_fixunsdfsi.o)
 .debug_frame   0x00004420       0x28 /home/brusli/.mcuxpressotools/arm-gnu-toolchain-14.2.rel1-x86_64-arm-none-eabi/bin/../lib/gcc/arm-none-eabi/14.2.1/../../../../arm-none-eabi/lib/thumb/v8-m.main+fp/hard/libc_nano.a(libc_a-exit.o)
 .debug_frame   0x00004448       0x50 /home/brusli/.mcuxpressotools/arm-gnu-toolchain-14.2.rel1-x86_64-arm-none-eabi/bin/../lib/gcc/arm-none-eabi/14.2.1/../../../../arm-none-eabi/lib/thumb/v8-m.main+fp/hard/libc_nano.a(libc_a-mallocr.o)
 .debug_frame   0x00004498       0x30 /home/brusli/.mcuxpressotools/arm-gnu-toolchain-14.2.rel1-x86_64-arm-none-eabi/bin/../lib/gcc/arm-none-eabi/14.2.1/../../../../arm-none-eabi/lib/thumb/v8-m.main+fp/hard/libc_nano.a(libc_a-mlock.o)
 .debug_frame   0x000044c8      0x144 /home/brusli/.mcuxpressotools/arm-gnu-toolchain-14.2.rel1-x86_64-arm-none-eabi/bin/../lib/gcc/arm-none-eabi/14.2.1/../../../../arm-none-eabi/lib/thumb/v8-m.main+fp/hard/libc_nano.a(libc_a-findfp.o)
 .debug_frame   0x0000460c       0x4c /home/brusli/.mcuxpressotools/arm-gnu-toolchain-14.2.rel1-x86_64-arm-none-eabi/bin/../lib/gcc/arm-none-eabi/14.2.1/../../../../arm-none-eabi/lib/thumb/v8-m.main+fp/hard/libc_nano.a(libc_a-vsnprintf.o)
 .debug_frame   0x00004658       0x40 /home/brusli/.mcuxpressotools/arm-gnu-toolchain-14.2.rel1-x86_64-arm-none-eabi/bin/../lib/gcc/arm-none-eabi/14.2.1/../../../../arm-none-eabi/lib/thumb/v8-m.main+fp/hard/libc_nano.a(libc_a-vsprintf.o)
 .debug_frame   0x00004698       0x20 /home/brusli/.mcuxpressotools/arm-gnu-toolchain-14.2.rel1-x86_64-arm-none-eabi/bin/../lib/gcc/arm-none-eabi/14.2.1/../../../../arm-none-eabi/lib/thumb/v8-m.main+fp/hard/libc_nano.a(libc_a-memset.o)
 .debug_frame   0x000046b8       0x38 /home/brusli/.mcuxpressotools/arm-gnu-toolchain-14.2.rel1-x86_64-arm-none-eabi/bin/../lib/gcc/arm-none-eabi/14.2.1/../../../../arm-none-eabi/lib/thumb/v8-m.main+fp/hard/libc_nano.a(libc_a-reent.o)
 .debug_frame   0x000046f0       0x2c /home/brusli/.mcuxpressotools/arm-gnu-toolchain-14.2.rel1-x86_64-arm-none-eabi/bin/../lib/gcc/arm-none-eabi/14.2.1/../../../../arm-none-eabi/lib/thumb/v8-m.main+fp/hard/libc_nano.a(libc_a-sbrkr.o)
 .debug_frame   0x0000471c       0x20 /home/brusli/.mcuxpressotools/arm-gnu-toolchain-14.2.rel1-x86_64-arm-none-eabi/bin/../lib/gcc/arm-none-eabi/14.2.1/../../../../arm-none-eabi/lib/thumb/v8-m.main+fp/hard/libc_nano.a(libc_a-errno.o)
 .debug_frame   0x0000473c       0x2c /home/brusli/.mcuxpressotools/arm-gnu-toolchain-14.2.rel1-x86_64-arm-none-eabi/bin/../lib/gcc/arm-none-eabi/14.2.1/../../../../arm-none-eabi/lib/thumb/v8-m.main+fp/hard/libc_nano.a(libc_a-init.o)
 .debug_frame   0x00004768       0xb0 /home/brusli/.mcuxpressotools/arm-gnu-toolchain-14.2.rel1-x86_64-arm-none-eabi/bin/../lib/gcc/arm-none-eabi/14.2.1/../../../../arm-none-eabi/lib/thumb/v8-m.main+fp/hard/libc_nano.a(libc_a-lock.o)
 .debug_frame   0x00004818       0x20 /home/brusli/.mcuxpressotools/arm-gnu-toolchain-14.2.rel1-x86_64-arm-none-eabi/bin/../lib/gcc/arm-none-eabi/14.2.1/../../../../arm-none-eabi/lib/thumb/v8-m.main+fp/hard/libc_nano.a(libc_a-strlen.o)
 .debug_frame   0x00004838       0x38 /home/brusli/.mcuxpressotools/arm-gnu-toolchain-14.2.rel1-x86_64-arm-none-eabi/bin/../lib/gcc/arm-none-eabi/14.2.1/../../../../arm-none-eabi/lib/thumb/v8-m.main+fp/hard/libc_nano.a(libc_a-freer.o)
 .debug_frame   0x00004870       0x90 /home/brusli/.mcuxpressotools/arm-gnu-toolchain-14.2.rel1-x86_64-arm-none-eabi/bin/../lib/gcc/arm-none-eabi/14.2.1/../../../../arm-none-eabi/lib/thumb/v8-m.main+fp/hard/libc_nano.a(libc_a-nano-svfprintf.o)
 .debug_frame   0x00004900       0x60 /home/brusli/.mcuxpressotools/arm-gnu-toolchain-14.2.rel1-x86_64-arm-none-eabi/bin/../lib/gcc/arm-none-eabi/14.2.1/../../../../arm-none-eabi/lib/thumb/v8-m.main+fp/hard/libc_nano.a(libc_a-nano-vfprintf_i.o)
 .debug_frame   0x00004960       0x28 /home/brusli/.mcuxpressotools/arm-gnu-toolchain-14.2.rel1-x86_64-arm-none-eabi/bin/../lib/gcc/arm-none-eabi/14.2.1/../../../../arm-none-eabi/lib/thumb/v8-m.main+fp/hard/libc_nano.a(libc_a-memmove.o)
 .debug_frame   0x00004988       0x28 /home/brusli/.mcuxpressotools/arm-gnu-toolchain-14.2.rel1-x86_64-arm-none-eabi/bin/../lib/gcc/arm-none-eabi/14.2.1/../../../../arm-none-eabi/lib/thumb/v8-m.main+fp/hard/libc_nano.a(libc_a-memchr-stub.o)
 .debug_frame   0x000049b0       0x3c /home/brusli/.mcuxpressotools/arm-gnu-toolchain-14.2.rel1-x86_64-arm-none-eabi/bin/../lib/gcc/arm-none-eabi/14.2.1/../../../../arm-none-eabi/lib/thumb/v8-m.main+fp/hard/libc_nano.a(libc_a-reallocr.o)
 .debug_frame   0x000049ec       0x20 /home/brusli/.mcuxpressotools/arm-gnu-toolchain-14.2.rel1-x86_64-arm-none-eabi/bin/../lib/gcc/arm-none-eabi/14.2.1/../../../../arm-none-eabi/lib/thumb/v8-m.main+fp/hard/libc_nano.a(libc_a-msizer.o)
 .debug_frame   0x00004a0c       0x20 /home/brusli/.mcuxpressotools/arm-gnu-toolchain-14.2.rel1-x86_64-arm-none-eabi/bin/../lib/gcc/arm-none-eabi/14.2.1/../../../../arm-none-eabi/lib/thumb/v8-m.main+fp/hard/libcr_newlib_nohost.a(_exit.o)

.debug_loc      0x00000000       0x15
 .debug_loc     0x00000000       0x15 /home/brusli/.mcuxpressotools/arm-gnu-toolchain-14.2.rel1-x86_64-arm-none-eabi/bin/../lib/gcc/arm-none-eabi/14.2.1/../../../../arm-none-eabi/lib/thumb/v8-m.main+fp/hard/libcr_newlib_nohost.a(_exit.o)

.debug_ranges   0x00000000       0x10
 .debug_ranges  0x00000000       0x10 /home/brusli/.mcuxpressotools/arm-gnu-toolchain-14.2.rel1-x86_64-arm-none-eabi/bin/../lib/gcc/arm-none-eabi/14.2.1/../../../../arm-none-eabi/lib/thumb/v8-m.main+fp/hard/libcr_newlib_nohost.a(_exit.o)
